; ModuleID = '/home/ziyan/ziyan/ece527/shufflenetv2_master/sufflenetv3_vivado/acceleartor_padding/acceleartor_hls_padding/naive/.autopilot/db/a.g.bc'
target datalayout = "e-p:64:64:64-i1:8:8-i8:8:8-i16:16:16-i32:32:32-i64:64:64-f32:32:32-f64:64:64-v64:64:64-v128:128:128-a0:0:64-s0:64:64-f80:128:128-n8:16:32:64-S128"
target triple = "x86_64-unknown-linux-gnu"

%"class.std::ios_base::Init" = type {}
%"class.std::basic_ostream" = type { i32 (...)**, %"class.std::basic_ios" }
%"class.std::basic_ios" = type { %"class.std::ios_base", %"class.std::basic_ostream"*, i8, i1, %"class.std::basic_streambuf"*, %"class.std::ctype"*, %"class.std::num_put"*, %"class.std::num_get"* }
%"class.std::ios_base" = type { i32 (...)**, i64, i64, i17, i17, i17, %"struct.std::ios_base::_Callback_list"*, %"struct.std::ios_base::_Words", [8 x %"struct.std::ios_base::_Words"], i32, %"struct.std::ios_base::_Words"*, %"class.std::locale" }
%"struct.std::ios_base::_Callback_list" = type { %"struct.std::ios_base::_Callback_list"*, void (i2, %"class.std::ios_base"*, i32)*, i32, i32 }
%"struct.std::ios_base::_Words" = type { i8*, i64 }
%"class.std::locale" = type { %"class.std::locale::_Impl"* }
%"class.std::locale::_Impl" = type { i32, %"class.std::locale::facet"**, i64, %"class.std::locale::facet"**, i8** }
%"class.std::locale::facet" = type { i32 (...)**, i32 }
%"class.std::basic_streambuf" = type { i32 (...)**, i8*, i8*, i8*, i8*, i8*, i8*, %"class.std::locale" }
%"class.std::ctype" = type { %"class.std::locale::facet", %struct.__locale_struct*, i1, i32*, i32*, i16*, i8, [256 x i8], [256 x i8], i8 }
%struct.__locale_struct = type { [13 x %"class.std::ios_base::Init"*], i16*, i32*, i32*, [13 x i8*] }
%"class.std::num_put" = type { %"class.std::locale::facet" }
%"class.std::num_get" = type { %"class.std::locale::facet" }
%"class.std::locale::id" = type { i64 }
%"class.std::basic_istream" = type { i32 (...)**, i64, %"class.std::basic_ios" }
%"class.std::basic_istream.0" = type { i32 (...)**, i64, %"class.std::basic_ios.2" }
%"class.std::basic_ios.2" = type { %"class.std::ios_base", %"class.std::basic_ostream.3"*, i32, i1, %"class.std::basic_streambuf.4"*, %"class.std::ctype.5"*, %"class.std::num_put.6"*, %"class.std::num_get.7"* }
%"class.std::basic_ostream.3" = type { i32 (...)**, %"class.std::basic_ios.2" }
%"class.std::basic_streambuf.4" = type { i32 (...)**, i32*, i32*, i32*, i32*, i32*, i32*, %"class.std::locale" }
%"class.std::ctype.5" = type { %"class.std::__ctype_abstract_base", %struct.__locale_struct*, i1, [128 x i8], [256 x i32], [16 x i16], [16 x i64] }
%"class.std::__ctype_abstract_base" = type { %"class.std::locale::facet" }
%"class.std::num_put.6" = type { %"class.std::locale::facet" }
%"class.std::num_get.7" = type { %"class.std::locale::facet" }

@_ZStL8__ioinit = internal global %"class.std::ios_base::Init" zeroinitializer, align 1 ; [#uses=2 type=%"class.std::ios_base::Init"*]
@image_p = global [1 x [3 x [34 x [34 x float]]]] zeroinitializer, align 16 ; [#uses=2 type=[1 x [3 x [34 x [34 x float]]]]*]
@conv1_output = global [1 x [24 x [32 x [32 x float]]]] zeroinitializer, align 16 ; [#uses=0 type=[1 x [24 x [32 x [32 x float]]]]*]
@conv1_output_p = global [1 x [24 x [34 x [34 x float]]]] zeroinitializer, align 16 ; [#uses=1 type=[1 x [24 x [34 x [34 x float]]]]*]
@conv1_bias = global [24 x float] zeroinitializer, align 16 ; [#uses=2 type=[24 x float]*]
@downsampleunit0_output_p = global [1 x [48 x [18 x [18 x float]]]] zeroinitializer, align 16 ; [#uses=2 type=[1 x [48 x [18 x [18 x float]]]]*]
@shuffleunit0_0_output_p = global [1 x [48 x [18 x [18 x float]]]] zeroinitializer, align 16 ; [#uses=2 type=[1 x [48 x [18 x [18 x float]]]]*]
@shuffleunit0_1_output_p = global [1 x [48 x [18 x [18 x float]]]] zeroinitializer, align 16 ; [#uses=2 type=[1 x [48 x [18 x [18 x float]]]]*]
@shuffleunit0_2_output_p = global [1 x [48 x [18 x [18 x float]]]] zeroinitializer, align 16 ; [#uses=1 type=[1 x [48 x [18 x [18 x float]]]]*]
@downsampleunit1_output_p = global [1 x [96 x [10 x [10 x float]]]] zeroinitializer, align 16 ; [#uses=2 type=[1 x [96 x [10 x [10 x float]]]]*]
@shuffleunit1_0_output_p = global [1 x [96 x [10 x [10 x float]]]] zeroinitializer, align 16 ; [#uses=2 type=[1 x [96 x [10 x [10 x float]]]]*]
@shuffleunit1_1_output_p = global [1 x [96 x [10 x [10 x float]]]] zeroinitializer, align 16 ; [#uses=2 type=[1 x [96 x [10 x [10 x float]]]]*]
@shuffleunit1_2_output_p = global [1 x [96 x [10 x [10 x float]]]] zeroinitializer, align 16 ; [#uses=2 type=[1 x [96 x [10 x [10 x float]]]]*]
@shuffleunit1_3_output_p = global [1 x [96 x [10 x [10 x float]]]] zeroinitializer, align 16 ; [#uses=2 type=[1 x [96 x [10 x [10 x float]]]]*]
@shuffleunit1_4_output_p = global [1 x [96 x [10 x [10 x float]]]] zeroinitializer, align 16 ; [#uses=2 type=[1 x [96 x [10 x [10 x float]]]]*]
@shuffleunit1_5_output_p = global [1 x [96 x [10 x [10 x float]]]] zeroinitializer, align 16 ; [#uses=2 type=[1 x [96 x [10 x [10 x float]]]]*]
@shuffleunit1_6_output_p = global [1 x [96 x [10 x [10 x float]]]] zeroinitializer, align 16 ; [#uses=2 type=[1 x [96 x [10 x [10 x float]]]]*]
@shuffleunit1_7_output_p = global [1 x [96 x [10 x [10 x float]]]] zeroinitializer, align 16 ; [#uses=1 type=[1 x [96 x [10 x [10 x float]]]]*]
@downsampleunit2_output_p = global [1 x [192 x [6 x [6 x float]]]] zeroinitializer, align 16 ; [#uses=2 type=[1 x [192 x [6 x [6 x float]]]]*]
@shuffleunit2_0_output_p = global [1 x [192 x [6 x [6 x float]]]] zeroinitializer, align 16 ; [#uses=2 type=[1 x [192 x [6 x [6 x float]]]]*]
@shuffleunit2_1_output_p = global [1 x [192 x [6 x [6 x float]]]] zeroinitializer, align 16 ; [#uses=2 type=[1 x [192 x [6 x [6 x float]]]]*]
@shuffleunit2_2_output_p = global [1 x [192 x [6 x [6 x float]]]] zeroinitializer, align 16 ; [#uses=2 type=[1 x [192 x [6 x [6 x float]]]]*]
@shuffleunit2_2_output = global [1 x [192 x [4 x [4 x float]]]] zeroinitializer, align 16 ; [#uses=2 type=[1 x [192 x [4 x [4 x float]]]]*]
@conv_last_output = global [1 x [512 x [4 x [4 x float]]]] zeroinitializer, align 16 ; [#uses=1 type=[1 x [512 x [4 x [4 x float]]]]*]
@avgpool_output = global [512 x float] zeroinitializer, align 16 ; [#uses=1 type=[512 x float]*]
@weights_24_24_1x1 = global [24 x [24 x [1 x [1 x float]]]] zeroinitializer, align 16 ; [#uses=10 type=[24 x [24 x [1 x [1 x float]]]]*]
@weights_24_1_3x3 = global [24 x [1 x [3 x [3 x float]]]] zeroinitializer, align 16 ; [#uses=6 type=[24 x [1 x [3 x [3 x float]]]]*]
@bias_24 = global [24 x float] zeroinitializer, align 16 ; [#uses=15 type=[24 x float]*]
@ShuffleConvs_0_DownsampleUnit__conv1r_output_p = global [1 x [24 x [34 x [34 x float]]]] zeroinitializer, align 16 ; [#uses=1 type=[1 x [24 x [34 x [34 x float]]]]*]
@buffer0_1_24_16x16_p = global [1 x [24 x [18 x [18 x float]]]] zeroinitializer, align 16 ; [#uses=2 type=[1 x [24 x [18 x [18 x float]]]]*]
@buffer1_1_24_16x16_p = global [1 x [24 x [18 x [18 x float]]]] zeroinitializer, align 16 ; [#uses=1 type=[1 x [24 x [18 x [18 x float]]]]*]
@weights_48_48_1x1 = global [48 x [48 x [1 x [1 x float]]]] zeroinitializer, align 16 ; [#uses=20 type=[48 x [48 x [1 x [1 x float]]]]*]
@weights_48_1_3x3 = global [48 x [1 x [3 x [3 x float]]]] zeroinitializer, align 16 ; [#uses=11 type=[48 x [1 x [3 x [3 x float]]]]*]
@bias_48 = global [48 x float] zeroinitializer, align 16 ; [#uses=30 type=[48 x float]*]
@ShuffleConvs_1_DownsampleUnit__conv1r_output_p = global [1 x [48 x [18 x [18 x float]]]] zeroinitializer, align 16 ; [#uses=1 type=[1 x [48 x [18 x [18 x float]]]]*]
@buffer0_1_48_8x8_p = global [1 x [48 x [10 x [10 x float]]]] zeroinitializer, align 16 ; [#uses=2 type=[1 x [48 x [10 x [10 x float]]]]*]
@buffer1_1_48_8x8_p = global [1 x [48 x [10 x [10 x float]]]] zeroinitializer, align 16 ; [#uses=1 type=[1 x [48 x [10 x [10 x float]]]]*]
@weights_96_96_1x1 = global [96 x [96 x [1 x [1 x float]]]] zeroinitializer, align 16 ; [#uses=10 type=[96 x [96 x [1 x [1 x float]]]]*]
@weights_96_1_3x3 = global [96 x [1 x [3 x [3 x float]]]] zeroinitializer, align 16 ; [#uses=6 type=[96 x [1 x [3 x [3 x float]]]]*]
@bias_96 = global [96 x float] zeroinitializer, align 16 ; [#uses=15 type=[96 x float]*]
@ShuffleConvs_2_DownsampleUnit__conv1r_output_p = global [1 x [96 x [10 x [10 x float]]]] zeroinitializer, align 16 ; [#uses=1 type=[1 x [96 x [10 x [10 x float]]]]*]
@buffer0_1_96_4x4_p = global [1 x [96 x [6 x [6 x float]]]] zeroinitializer, align 16 ; [#uses=2 type=[1 x [96 x [6 x [6 x float]]]]*]
@buffer1_1_96_4x4_p = global [1 x [96 x [6 x [6 x float]]]] zeroinitializer, align 16 ; [#uses=1 type=[1 x [96 x [6 x [6 x float]]]]*]
@conv_last_bias = global [512 x float] zeroinitializer, align 16 ; [#uses=2 type=[512 x float]*]
@fc_bias = global [10 x float] zeroinitializer, align 16 ; [#uses=2 type=[10 x float]*]
@_ZSt4cout = external global %"class.std::basic_ostream" ; [#uses=2 type=%"class.std::basic_ostream"*]
@.str = private unnamed_addr constant [13 x i8] c"result above\00", align 1 ; [#uses=1 type=[13 x i8]*]
@_ZN9__gnu_cxx24__numeric_traits_integer11__is_signedE = external constant i1 ; [#uses=0 type=i1*]
@_ZN9__gnu_cxx24__numeric_traits_integer8__digitsE = external constant i32 ; [#uses=0 type=i32*]
@_ZN9__gnu_cxx25__numeric_traits_floating14__max_digits10E = external constant i32 ; [#uses=0 type=i32*]
@_ZN9__gnu_cxx25__numeric_traits_floating11__is_signedE = external constant i1 ; [#uses=0 type=i1*]
@_ZN9__gnu_cxx25__numeric_traits_floating10__digits10E = external constant i32 ; [#uses=0 type=i32*]
@_ZN9__gnu_cxx25__numeric_traits_floating16__max_exponent10E = external constant i32 ; [#uses=0 type=i32*]
@__daylight = external global i32                 ; [#uses=0 type=i32*]
@__timezone = external global i64                 ; [#uses=0 type=i64*]
@daylight = external global i32                   ; [#uses=0 type=i32*]
@timezone = external global i64                   ; [#uses=0 type=i64*]
@getdate_err = external global i32                ; [#uses=0 type=i32*]
@__environ = external global i8**                 ; [#uses=0 type=i8***]
@environ = external global i8**                   ; [#uses=0 type=i8***]
@optarg = external global i8*                     ; [#uses=0 type=i8**]
@optind = external global i32                     ; [#uses=0 type=i32*]
@opterr = external global i32                     ; [#uses=0 type=i32*]
@optopt = external global i32                     ; [#uses=0 type=i32*]
@_ZSt7nothrow = external global %"class.std::ios_base::Init" ; [#uses=0 type=%"class.std::ios_base::Init"*]
@_ZNSt6locale10_S_classicE = external global %"class.std::locale::_Impl"* ; [#uses=0 type=%"class.std::locale::_Impl"**]
@_ZNSt6locale9_S_globalE = external global %"class.std::locale::_Impl"* ; [#uses=0 type=%"class.std::locale::_Impl"**]
@_ZNSt6locale7_S_onceE = external global i32      ; [#uses=0 type=i32*]
@_ZNSt6locale5facet11_S_c_localeE = external global %struct.__locale_struct* ; [#uses=0 type=%struct.__locale_struct**]
@_ZNSt6locale5facet7_S_onceE = external global i32 ; [#uses=0 type=i32*]
@_ZNSt6locale2id11_S_refcountE = external global i32 ; [#uses=0 type=i32*]
@_ZNSt7collate2idE = external global %"class.std::locale::id" ; [#uses=0 type=%"class.std::locale::id"*]
@_ZNSt8ios_base4Init11_S_refcountE = external global i32 ; [#uses=0 type=i32*]
@_ZNSt8ios_base4Init20_S_synced_with_stdioE = external global i1 ; [#uses=0 type=i1*]
@_ZNSt5ctype2idE = external global %"class.std::locale::id" ; [#uses=0 type=%"class.std::locale::id"*]
@_ZNSt5ctypeIcE2idE = external global %"class.std::locale::id" ; [#uses=0 type=%"class.std::locale::id"*]
@_ZNSt5ctypeIwE2idE = external global %"class.std::locale::id" ; [#uses=0 type=%"class.std::locale::id"*]
@_ZNSt10__num_base12_S_atoms_outE = external global i8* ; [#uses=0 type=i8**]
@_ZNSt10__num_base11_S_atoms_inE = external global i8* ; [#uses=0 type=i8**]
@_ZNSt8numpunct2idE = external global %"class.std::locale::id" ; [#uses=0 type=%"class.std::locale::id"*]
@_ZNSt7num_get2idE = external global %"class.std::locale::id" ; [#uses=0 type=%"class.std::locale::id"*]
@_ZNSt7num_put2idE = external global %"class.std::locale::id" ; [#uses=0 type=%"class.std::locale::id"*]
@_ZSt3cin = external global %"class.std::basic_istream" ; [#uses=0 type=%"class.std::basic_istream"*]
@_ZSt4cerr = external global %"class.std::basic_ostream" ; [#uses=0 type=%"class.std::basic_ostream"*]
@_ZSt4clog = external global %"class.std::basic_ostream" ; [#uses=0 type=%"class.std::basic_ostream"*]
@_ZSt4wcin = external global %"class.std::basic_istream.0" ; [#uses=0 type=%"class.std::basic_istream.0"*]
@_ZSt5wcout = external global %"class.std::basic_ostream.3" ; [#uses=0 type=%"class.std::basic_ostream.3"*]
@_ZSt5wcerr = external global %"class.std::basic_ostream.3" ; [#uses=0 type=%"class.std::basic_ostream.3"*]
@_ZSt5wclog = external global %"class.std::basic_ostream.3" ; [#uses=0 type=%"class.std::basic_ostream.3"*]
@_ZNSt7codecvt2idE = external global %"class.std::locale::id" ; [#uses=0 type=%"class.std::locale::id"*]
@_ZNSt7codecvtIcc11__mbstate_tE2idE = external global %"class.std::locale::id" ; [#uses=0 type=%"class.std::locale::id"*]
@_ZNSt7codecvtIwc11__mbstate_tE2idE = external global %"class.std::locale::id" ; [#uses=0 type=%"class.std::locale::id"*]
@_IO_2_1_stdin_ = external global %"class.std::ios_base::Init" ; [#uses=0 type=%"class.std::ios_base::Init"*]
@_IO_2_1_stdout_ = external global %"class.std::ios_base::Init" ; [#uses=0 type=%"class.std::ios_base::Init"*]
@_IO_2_1_stderr_ = external global %"class.std::ios_base::Init" ; [#uses=0 type=%"class.std::ios_base::Init"*]
@sys_nerr = external global i32                   ; [#uses=0 type=i32*]
@_sys_nerr = external global i32                  ; [#uses=0 type=i32*]
@signgam = external global i32                    ; [#uses=0 type=i32*]
@llvm.global_ctors = appending global [2 x { i32, void ()* }] [{ i32, void ()* } { i32 65535, void ()* @_GLOBAL__I_a }, { i32, void ()* } { i32 65535, void ()* @_GLOBAL__I_a55 }] ; [#uses=0 type=[2 x { i32, void ()* }]*]
@_ZStL8__ioinit1 = internal global %"class.std::ios_base::Init" zeroinitializer, align 1 ; [#uses=2 type=%"class.std::ios_base::Init"*]

; [#uses=1]
define internal void @__cxx_global_var_init() nounwind section ".text.startup" {
  call void @_ZNSt8ios_base4InitC1Ev(%"class.std::ios_base::Init"* @_ZStL8__ioinit)
  %1 = call i32 @atexit(void ()* @__dtor__ZStL8__ioinit) ; [#uses=0 type=i32]
  ret void
}

; [#uses=2]
declare void @_ZNSt8ios_base4InitC1Ev(%"class.std::ios_base::Init"*)

; [#uses=2]
declare void @_ZNSt8ios_base4InitD1Ev(%"class.std::ios_base::Init"*)

; [#uses=1]
define internal void @__dtor__ZStL8__ioinit() nounwind section ".text.startup" {
  call void @_ZNSt8ios_base4InitD1Ev(%"class.std::ios_base::Init"* @_ZStL8__ioinit)
  ret void
}

; [#uses=2]
declare i32 @atexit(void ()*) nounwind

; [#uses=0]
define void @_Z12ShuffleNetV2PA3_A32_A32_fPA3_A3_A3_fPA1_S4_PA24_A1_A1_fPA192_SA_PA512_fPfSH_([3 x [32 x [32 x float]]]* %image, [3 x [3 x [3 x float]]]* %conv1_weight, [1 x [3 x [3 x float]]]* %shuffle_conv_3x3, [24 x [1 x [1 x float]]]* %shuffle_conv_1x1, [192 x [1 x [1 x float]]]* %conv_last_weight, [512 x float]* %fc_weight, float* %bias, float* %fc_output) nounwind uwtable {
  %1 = alloca [3 x [32 x [32 x float]]]*, align 8 ; [#uses=3 type=[3 x [32 x [32 x float]]]**]
  %2 = alloca [3 x [3 x [3 x float]]]*, align 8   ; [#uses=3 type=[3 x [3 x [3 x float]]]**]
  %3 = alloca [1 x [3 x [3 x float]]]*, align 8   ; [#uses=22 type=[1 x [3 x [3 x float]]]**]
  %4 = alloca [24 x [1 x [1 x float]]]*, align 8  ; [#uses=39 type=[24 x [1 x [1 x float]]]**]
  %5 = alloca [192 x [1 x [1 x float]]]*, align 8 ; [#uses=3 type=[192 x [1 x [1 x float]]]**]
  %6 = alloca [512 x float]*, align 8             ; [#uses=3 type=[512 x float]**]
  %7 = alloca float*, align 8                     ; [#uses=62 type=float**]
  %8 = alloca float*, align 8                     ; [#uses=4 type=float**]
  %i = alloca i32, align 4                        ; [#uses=6 type=i32*]
  %i1 = alloca i32, align 4                       ; [#uses=6 type=i32*]
  %i2 = alloca i32, align 4                       ; [#uses=6 type=i32*]
  %ci = alloca i32, align 4                       ; [#uses=6 type=i32*]
  %w = alloca i32, align 4                        ; [#uses=6 type=i32*]
  %h = alloca i32, align 4                        ; [#uses=6 type=i32*]
  %co = alloca i32, align 4                       ; [#uses=6 type=i32*]
  %ci3 = alloca i32, align 4                      ; [#uses=6 type=i32*]
  %i4 = alloca i32, align 4                       ; [#uses=6 type=i32*]
  %co5 = alloca i32, align 4                      ; [#uses=6 type=i32*]
  %w6 = alloca i32, align 4                       ; [#uses=6 type=i32*]
  %h7 = alloca i32, align 4                       ; [#uses=6 type=i32*]
  %i8 = alloca i32, align 4                       ; [#uses=6 type=i32*]
  %co9 = alloca i32, align 4                      ; [#uses=6 type=i32*]
  %ci10 = alloca i32, align 4                     ; [#uses=6 type=i32*]
  %i11 = alloca i32, align 4                      ; [#uses=6 type=i32*]
  %co12 = alloca i32, align 4                     ; [#uses=6 type=i32*]
  %w13 = alloca i32, align 4                      ; [#uses=6 type=i32*]
  %h14 = alloca i32, align 4                      ; [#uses=6 type=i32*]
  %i15 = alloca i32, align 4                      ; [#uses=6 type=i32*]
  %co16 = alloca i32, align 4                     ; [#uses=6 type=i32*]
  %ci17 = alloca i32, align 4                     ; [#uses=6 type=i32*]
  %i18 = alloca i32, align 4                      ; [#uses=6 type=i32*]
  %co19 = alloca i32, align 4                     ; [#uses=6 type=i32*]
  %h20 = alloca i32, align 4                      ; [#uses=6 type=i32*]
  %w21 = alloca i32, align 4                      ; [#uses=6 type=i32*]
  %co22 = alloca i32, align 4                     ; [#uses=6 type=i32*]
  %ci23 = alloca i32, align 4                     ; [#uses=6 type=i32*]
  %i24 = alloca i32, align 4                      ; [#uses=6 type=i32*]
  %co25 = alloca i32, align 4                     ; [#uses=6 type=i32*]
  %w26 = alloca i32, align 4                      ; [#uses=6 type=i32*]
  %h27 = alloca i32, align 4                      ; [#uses=6 type=i32*]
  %i28 = alloca i32, align 4                      ; [#uses=6 type=i32*]
  %co29 = alloca i32, align 4                     ; [#uses=6 type=i32*]
  %ci30 = alloca i32, align 4                     ; [#uses=6 type=i32*]
  %i31 = alloca i32, align 4                      ; [#uses=6 type=i32*]
  %co32 = alloca i32, align 4                     ; [#uses=6 type=i32*]
  %h33 = alloca i32, align 4                      ; [#uses=6 type=i32*]
  %w34 = alloca i32, align 4                      ; [#uses=6 type=i32*]
  %co35 = alloca i32, align 4                     ; [#uses=6 type=i32*]
  %h36 = alloca i32, align 4                      ; [#uses=6 type=i32*]
  %w37 = alloca i32, align 4                      ; [#uses=6 type=i32*]
  %co38 = alloca i32, align 4                     ; [#uses=6 type=i32*]
  %ci39 = alloca i32, align 4                     ; [#uses=6 type=i32*]
  %i40 = alloca i32, align 4                      ; [#uses=6 type=i32*]
  %co41 = alloca i32, align 4                     ; [#uses=6 type=i32*]
  %w42 = alloca i32, align 4                      ; [#uses=6 type=i32*]
  %h43 = alloca i32, align 4                      ; [#uses=6 type=i32*]
  %i44 = alloca i32, align 4                      ; [#uses=6 type=i32*]
  %co45 = alloca i32, align 4                     ; [#uses=6 type=i32*]
  %ci46 = alloca i32, align 4                     ; [#uses=6 type=i32*]
  %i47 = alloca i32, align 4                      ; [#uses=6 type=i32*]
  %co48 = alloca i32, align 4                     ; [#uses=6 type=i32*]
  %h49 = alloca i32, align 4                      ; [#uses=6 type=i32*]
  %w50 = alloca i32, align 4                      ; [#uses=6 type=i32*]
  %co51 = alloca i32, align 4                     ; [#uses=6 type=i32*]
  %h52 = alloca i32, align 4                      ; [#uses=6 type=i32*]
  %w53 = alloca i32, align 4                      ; [#uses=6 type=i32*]
  %co54 = alloca i32, align 4                     ; [#uses=6 type=i32*]
  %ci55 = alloca i32, align 4                     ; [#uses=6 type=i32*]
  %i56 = alloca i32, align 4                      ; [#uses=6 type=i32*]
  %co57 = alloca i32, align 4                     ; [#uses=6 type=i32*]
  %w58 = alloca i32, align 4                      ; [#uses=6 type=i32*]
  %h59 = alloca i32, align 4                      ; [#uses=6 type=i32*]
  %i60 = alloca i32, align 4                      ; [#uses=6 type=i32*]
  %co61 = alloca i32, align 4                     ; [#uses=6 type=i32*]
  %ci62 = alloca i32, align 4                     ; [#uses=6 type=i32*]
  %i63 = alloca i32, align 4                      ; [#uses=6 type=i32*]
  %co64 = alloca i32, align 4                     ; [#uses=6 type=i32*]
  %h65 = alloca i32, align 4                      ; [#uses=6 type=i32*]
  %w66 = alloca i32, align 4                      ; [#uses=6 type=i32*]
  %co67 = alloca i32, align 4                     ; [#uses=7 type=i32*]
  %ci68 = alloca i32, align 4                     ; [#uses=6 type=i32*]
  %i69 = alloca i32, align 4                      ; [#uses=6 type=i32*]
  %i70 = alloca i32, align 4                      ; [#uses=6 type=i32*]
  %k = alloca i32, align 4                        ; [#uses=6 type=i32*]
  %co71 = alloca i32, align 4                     ; [#uses=6 type=i32*]
  %w72 = alloca i32, align 4                      ; [#uses=6 type=i32*]
  %h73 = alloca i32, align 4                      ; [#uses=6 type=i32*]
  %i74 = alloca i32, align 4                      ; [#uses=6 type=i32*]
  %i75 = alloca i32, align 4                      ; [#uses=6 type=i32*]
  %k76 = alloca i32, align 4                      ; [#uses=6 type=i32*]
  %co77 = alloca i32, align 4                     ; [#uses=7 type=i32*]
  %ci78 = alloca i32, align 4                     ; [#uses=6 type=i32*]
  %i79 = alloca i32, align 4                      ; [#uses=6 type=i32*]
  %i80 = alloca i32, align 4                      ; [#uses=6 type=i32*]
  %k81 = alloca i32, align 4                      ; [#uses=6 type=i32*]
  %co82 = alloca i32, align 4                     ; [#uses=6 type=i32*]
  %w83 = alloca i32, align 4                      ; [#uses=6 type=i32*]
  %h84 = alloca i32, align 4                      ; [#uses=6 type=i32*]
  %i85 = alloca i32, align 4                      ; [#uses=6 type=i32*]
  %i86 = alloca i32, align 4                      ; [#uses=6 type=i32*]
  %k87 = alloca i32, align 4                      ; [#uses=6 type=i32*]
  %co88 = alloca i32, align 4                     ; [#uses=7 type=i32*]
  %ci89 = alloca i32, align 4                     ; [#uses=6 type=i32*]
  %i90 = alloca i32, align 4                      ; [#uses=6 type=i32*]
  %i91 = alloca i32, align 4                      ; [#uses=6 type=i32*]
  %k92 = alloca i32, align 4                      ; [#uses=6 type=i32*]
  %co93 = alloca i32, align 4                     ; [#uses=6 type=i32*]
  %h94 = alloca i32, align 4                      ; [#uses=6 type=i32*]
  %w95 = alloca i32, align 4                      ; [#uses=6 type=i32*]
  %co96 = alloca i32, align 4                     ; [#uses=7 type=i32*]
  %ci97 = alloca i32, align 4                     ; [#uses=6 type=i32*]
  %i98 = alloca i32, align 4                      ; [#uses=6 type=i32*]
  %i99 = alloca i32, align 4                      ; [#uses=6 type=i32*]
  %k100 = alloca i32, align 4                     ; [#uses=6 type=i32*]
  %co101 = alloca i32, align 4                    ; [#uses=6 type=i32*]
  %w102 = alloca i32, align 4                     ; [#uses=6 type=i32*]
  %h103 = alloca i32, align 4                     ; [#uses=6 type=i32*]
  %i104 = alloca i32, align 4                     ; [#uses=6 type=i32*]
  %i105 = alloca i32, align 4                     ; [#uses=6 type=i32*]
  %k106 = alloca i32, align 4                     ; [#uses=6 type=i32*]
  %co107 = alloca i32, align 4                    ; [#uses=7 type=i32*]
  %ci108 = alloca i32, align 4                    ; [#uses=6 type=i32*]
  %i109 = alloca i32, align 4                     ; [#uses=6 type=i32*]
  %i110 = alloca i32, align 4                     ; [#uses=6 type=i32*]
  %k111 = alloca i32, align 4                     ; [#uses=6 type=i32*]
  %co112 = alloca i32, align 4                    ; [#uses=6 type=i32*]
  %h113 = alloca i32, align 4                     ; [#uses=6 type=i32*]
  %w114 = alloca i32, align 4                     ; [#uses=6 type=i32*]
  %co115 = alloca i32, align 4                    ; [#uses=6 type=i32*]
  %h116 = alloca i32, align 4                     ; [#uses=6 type=i32*]
  %w117 = alloca i32, align 4                     ; [#uses=6 type=i32*]
  %co118 = alloca i32, align 4                    ; [#uses=7 type=i32*]
  %ci119 = alloca i32, align 4                    ; [#uses=6 type=i32*]
  %i120 = alloca i32, align 4                     ; [#uses=6 type=i32*]
  %i121 = alloca i32, align 4                     ; [#uses=6 type=i32*]
  %k122 = alloca i32, align 4                     ; [#uses=6 type=i32*]
  %co123 = alloca i32, align 4                    ; [#uses=6 type=i32*]
  %w124 = alloca i32, align 4                     ; [#uses=6 type=i32*]
  %h125 = alloca i32, align 4                     ; [#uses=6 type=i32*]
  %i126 = alloca i32, align 4                     ; [#uses=6 type=i32*]
  %i127 = alloca i32, align 4                     ; [#uses=6 type=i32*]
  %k128 = alloca i32, align 4                     ; [#uses=6 type=i32*]
  %co129 = alloca i32, align 4                    ; [#uses=7 type=i32*]
  %ci130 = alloca i32, align 4                    ; [#uses=6 type=i32*]
  %i131 = alloca i32, align 4                     ; [#uses=6 type=i32*]
  %i132 = alloca i32, align 4                     ; [#uses=6 type=i32*]
  %k133 = alloca i32, align 4                     ; [#uses=6 type=i32*]
  %co134 = alloca i32, align 4                    ; [#uses=6 type=i32*]
  %h135 = alloca i32, align 4                     ; [#uses=6 type=i32*]
  %w136 = alloca i32, align 4                     ; [#uses=6 type=i32*]
  %co137 = alloca i32, align 4                    ; [#uses=6 type=i32*]
  %h138 = alloca i32, align 4                     ; [#uses=6 type=i32*]
  %w139 = alloca i32, align 4                     ; [#uses=6 type=i32*]
  %co140 = alloca i32, align 4                    ; [#uses=7 type=i32*]
  %ci141 = alloca i32, align 4                    ; [#uses=6 type=i32*]
  %i142 = alloca i32, align 4                     ; [#uses=6 type=i32*]
  %i143 = alloca i32, align 4                     ; [#uses=6 type=i32*]
  %k144 = alloca i32, align 4                     ; [#uses=6 type=i32*]
  %co145 = alloca i32, align 4                    ; [#uses=6 type=i32*]
  %w146 = alloca i32, align 4                     ; [#uses=6 type=i32*]
  %h147 = alloca i32, align 4                     ; [#uses=6 type=i32*]
  %i148 = alloca i32, align 4                     ; [#uses=6 type=i32*]
  %i149 = alloca i32, align 4                     ; [#uses=6 type=i32*]
  %k150 = alloca i32, align 4                     ; [#uses=6 type=i32*]
  %co151 = alloca i32, align 4                    ; [#uses=7 type=i32*]
  %ci152 = alloca i32, align 4                    ; [#uses=6 type=i32*]
  %i153 = alloca i32, align 4                     ; [#uses=6 type=i32*]
  %i154 = alloca i32, align 4                     ; [#uses=6 type=i32*]
  %k155 = alloca i32, align 4                     ; [#uses=6 type=i32*]
  %co156 = alloca i32, align 4                    ; [#uses=6 type=i32*]
  %h157 = alloca i32, align 4                     ; [#uses=6 type=i32*]
  %w158 = alloca i32, align 4                     ; [#uses=6 type=i32*]
  %co159 = alloca i32, align 4                    ; [#uses=6 type=i32*]
  %h160 = alloca i32, align 4                     ; [#uses=6 type=i32*]
  %w161 = alloca i32, align 4                     ; [#uses=6 type=i32*]
  %co162 = alloca i32, align 4                    ; [#uses=7 type=i32*]
  %ci163 = alloca i32, align 4                    ; [#uses=6 type=i32*]
  %i164 = alloca i32, align 4                     ; [#uses=6 type=i32*]
  %i165 = alloca i32, align 4                     ; [#uses=6 type=i32*]
  %k166 = alloca i32, align 4                     ; [#uses=6 type=i32*]
  %co167 = alloca i32, align 4                    ; [#uses=6 type=i32*]
  %w168 = alloca i32, align 4                     ; [#uses=6 type=i32*]
  %h169 = alloca i32, align 4                     ; [#uses=6 type=i32*]
  %i170 = alloca i32, align 4                     ; [#uses=6 type=i32*]
  %i171 = alloca i32, align 4                     ; [#uses=6 type=i32*]
  %k172 = alloca i32, align 4                     ; [#uses=6 type=i32*]
  %co173 = alloca i32, align 4                    ; [#uses=7 type=i32*]
  %ci174 = alloca i32, align 4                    ; [#uses=6 type=i32*]
  %i175 = alloca i32, align 4                     ; [#uses=6 type=i32*]
  %i176 = alloca i32, align 4                     ; [#uses=6 type=i32*]
  %k177 = alloca i32, align 4                     ; [#uses=6 type=i32*]
  %co178 = alloca i32, align 4                    ; [#uses=6 type=i32*]
  %h179 = alloca i32, align 4                     ; [#uses=6 type=i32*]
  %w180 = alloca i32, align 4                     ; [#uses=6 type=i32*]
  %co181 = alloca i32, align 4                    ; [#uses=6 type=i32*]
  %h182 = alloca i32, align 4                     ; [#uses=6 type=i32*]
  %w183 = alloca i32, align 4                     ; [#uses=6 type=i32*]
  %co184 = alloca i32, align 4                    ; [#uses=7 type=i32*]
  %ci185 = alloca i32, align 4                    ; [#uses=6 type=i32*]
  %i186 = alloca i32, align 4                     ; [#uses=6 type=i32*]
  %i187 = alloca i32, align 4                     ; [#uses=6 type=i32*]
  %k188 = alloca i32, align 4                     ; [#uses=6 type=i32*]
  %co189 = alloca i32, align 4                    ; [#uses=6 type=i32*]
  %w190 = alloca i32, align 4                     ; [#uses=6 type=i32*]
  %h191 = alloca i32, align 4                     ; [#uses=6 type=i32*]
  %i192 = alloca i32, align 4                     ; [#uses=6 type=i32*]
  %i193 = alloca i32, align 4                     ; [#uses=6 type=i32*]
  %k194 = alloca i32, align 4                     ; [#uses=6 type=i32*]
  %co195 = alloca i32, align 4                    ; [#uses=7 type=i32*]
  %ci196 = alloca i32, align 4                    ; [#uses=6 type=i32*]
  %i197 = alloca i32, align 4                     ; [#uses=6 type=i32*]
  %i198 = alloca i32, align 4                     ; [#uses=6 type=i32*]
  %k199 = alloca i32, align 4                     ; [#uses=6 type=i32*]
  %co200 = alloca i32, align 4                    ; [#uses=6 type=i32*]
  %h201 = alloca i32, align 4                     ; [#uses=6 type=i32*]
  %w202 = alloca i32, align 4                     ; [#uses=6 type=i32*]
  %co203 = alloca i32, align 4                    ; [#uses=6 type=i32*]
  %h204 = alloca i32, align 4                     ; [#uses=6 type=i32*]
  %w205 = alloca i32, align 4                     ; [#uses=6 type=i32*]
  %co206 = alloca i32, align 4                    ; [#uses=7 type=i32*]
  %ci207 = alloca i32, align 4                    ; [#uses=6 type=i32*]
  %i208 = alloca i32, align 4                     ; [#uses=6 type=i32*]
  %i209 = alloca i32, align 4                     ; [#uses=6 type=i32*]
  %k210 = alloca i32, align 4                     ; [#uses=6 type=i32*]
  %co211 = alloca i32, align 4                    ; [#uses=6 type=i32*]
  %w212 = alloca i32, align 4                     ; [#uses=6 type=i32*]
  %h213 = alloca i32, align 4                     ; [#uses=6 type=i32*]
  %i214 = alloca i32, align 4                     ; [#uses=6 type=i32*]
  %i215 = alloca i32, align 4                     ; [#uses=6 type=i32*]
  %k216 = alloca i32, align 4                     ; [#uses=6 type=i32*]
  %co217 = alloca i32, align 4                    ; [#uses=7 type=i32*]
  %ci218 = alloca i32, align 4                    ; [#uses=6 type=i32*]
  %i219 = alloca i32, align 4                     ; [#uses=6 type=i32*]
  %i220 = alloca i32, align 4                     ; [#uses=6 type=i32*]
  %k221 = alloca i32, align 4                     ; [#uses=6 type=i32*]
  %co222 = alloca i32, align 4                    ; [#uses=6 type=i32*]
  %h223 = alloca i32, align 4                     ; [#uses=6 type=i32*]
  %w224 = alloca i32, align 4                     ; [#uses=6 type=i32*]
  %co225 = alloca i32, align 4                    ; [#uses=6 type=i32*]
  %h226 = alloca i32, align 4                     ; [#uses=6 type=i32*]
  %w227 = alloca i32, align 4                     ; [#uses=6 type=i32*]
  %co228 = alloca i32, align 4                    ; [#uses=7 type=i32*]
  %ci229 = alloca i32, align 4                    ; [#uses=6 type=i32*]
  %i230 = alloca i32, align 4                     ; [#uses=6 type=i32*]
  %i231 = alloca i32, align 4                     ; [#uses=6 type=i32*]
  %k232 = alloca i32, align 4                     ; [#uses=6 type=i32*]
  %co233 = alloca i32, align 4                    ; [#uses=6 type=i32*]
  %w234 = alloca i32, align 4                     ; [#uses=6 type=i32*]
  %h235 = alloca i32, align 4                     ; [#uses=6 type=i32*]
  %i236 = alloca i32, align 4                     ; [#uses=6 type=i32*]
  %i237 = alloca i32, align 4                     ; [#uses=6 type=i32*]
  %k238 = alloca i32, align 4                     ; [#uses=6 type=i32*]
  %co239 = alloca i32, align 4                    ; [#uses=7 type=i32*]
  %ci240 = alloca i32, align 4                    ; [#uses=6 type=i32*]
  %i241 = alloca i32, align 4                     ; [#uses=6 type=i32*]
  %i242 = alloca i32, align 4                     ; [#uses=6 type=i32*]
  %k243 = alloca i32, align 4                     ; [#uses=6 type=i32*]
  %co244 = alloca i32, align 4                    ; [#uses=6 type=i32*]
  %h245 = alloca i32, align 4                     ; [#uses=6 type=i32*]
  %w246 = alloca i32, align 4                     ; [#uses=6 type=i32*]
  %co247 = alloca i32, align 4                    ; [#uses=6 type=i32*]
  %h248 = alloca i32, align 4                     ; [#uses=6 type=i32*]
  %w249 = alloca i32, align 4                     ; [#uses=6 type=i32*]
  %co250 = alloca i32, align 4                    ; [#uses=7 type=i32*]
  %ci251 = alloca i32, align 4                    ; [#uses=6 type=i32*]
  %i252 = alloca i32, align 4                     ; [#uses=6 type=i32*]
  %i253 = alloca i32, align 4                     ; [#uses=6 type=i32*]
  %k254 = alloca i32, align 4                     ; [#uses=6 type=i32*]
  %co255 = alloca i32, align 4                    ; [#uses=6 type=i32*]
  %w256 = alloca i32, align 4                     ; [#uses=6 type=i32*]
  %h257 = alloca i32, align 4                     ; [#uses=6 type=i32*]
  %i258 = alloca i32, align 4                     ; [#uses=6 type=i32*]
  %i259 = alloca i32, align 4                     ; [#uses=6 type=i32*]
  %k260 = alloca i32, align 4                     ; [#uses=6 type=i32*]
  %co261 = alloca i32, align 4                    ; [#uses=7 type=i32*]
  %ci262 = alloca i32, align 4                    ; [#uses=6 type=i32*]
  %i263 = alloca i32, align 4                     ; [#uses=6 type=i32*]
  %i264 = alloca i32, align 4                     ; [#uses=6 type=i32*]
  %k265 = alloca i32, align 4                     ; [#uses=6 type=i32*]
  %co266 = alloca i32, align 4                    ; [#uses=6 type=i32*]
  %h267 = alloca i32, align 4                     ; [#uses=6 type=i32*]
  %w268 = alloca i32, align 4                     ; [#uses=6 type=i32*]
  %co269 = alloca i32, align 4                    ; [#uses=7 type=i32*]
  %ci270 = alloca i32, align 4                    ; [#uses=6 type=i32*]
  %i271 = alloca i32, align 4                     ; [#uses=6 type=i32*]
  %i272 = alloca i32, align 4                     ; [#uses=6 type=i32*]
  %k273 = alloca i32, align 4                     ; [#uses=6 type=i32*]
  %co274 = alloca i32, align 4                    ; [#uses=6 type=i32*]
  %w275 = alloca i32, align 4                     ; [#uses=6 type=i32*]
  %h276 = alloca i32, align 4                     ; [#uses=6 type=i32*]
  %i277 = alloca i32, align 4                     ; [#uses=6 type=i32*]
  %i278 = alloca i32, align 4                     ; [#uses=6 type=i32*]
  %k279 = alloca i32, align 4                     ; [#uses=6 type=i32*]
  %co280 = alloca i32, align 4                    ; [#uses=7 type=i32*]
  %ci281 = alloca i32, align 4                    ; [#uses=6 type=i32*]
  %i282 = alloca i32, align 4                     ; [#uses=6 type=i32*]
  %i283 = alloca i32, align 4                     ; [#uses=6 type=i32*]
  %k284 = alloca i32, align 4                     ; [#uses=6 type=i32*]
  %co285 = alloca i32, align 4                    ; [#uses=6 type=i32*]
  %w286 = alloca i32, align 4                     ; [#uses=6 type=i32*]
  %h287 = alloca i32, align 4                     ; [#uses=6 type=i32*]
  %i288 = alloca i32, align 4                     ; [#uses=6 type=i32*]
  %i289 = alloca i32, align 4                     ; [#uses=6 type=i32*]
  %k290 = alloca i32, align 4                     ; [#uses=6 type=i32*]
  %co291 = alloca i32, align 4                    ; [#uses=7 type=i32*]
  %ci292 = alloca i32, align 4                    ; [#uses=6 type=i32*]
  %i293 = alloca i32, align 4                     ; [#uses=6 type=i32*]
  %i294 = alloca i32, align 4                     ; [#uses=6 type=i32*]
  %k295 = alloca i32, align 4                     ; [#uses=6 type=i32*]
  %co296 = alloca i32, align 4                    ; [#uses=6 type=i32*]
  %h297 = alloca i32, align 4                     ; [#uses=6 type=i32*]
  %w298 = alloca i32, align 4                     ; [#uses=6 type=i32*]
  %co299 = alloca i32, align 4                    ; [#uses=7 type=i32*]
  %ci300 = alloca i32, align 4                    ; [#uses=6 type=i32*]
  %i301 = alloca i32, align 4                     ; [#uses=6 type=i32*]
  %i302 = alloca i32, align 4                     ; [#uses=6 type=i32*]
  %k303 = alloca i32, align 4                     ; [#uses=6 type=i32*]
  %co304 = alloca i32, align 4                    ; [#uses=6 type=i32*]
  %w305 = alloca i32, align 4                     ; [#uses=6 type=i32*]
  %h306 = alloca i32, align 4                     ; [#uses=6 type=i32*]
  %i307 = alloca i32, align 4                     ; [#uses=6 type=i32*]
  %i308 = alloca i32, align 4                     ; [#uses=6 type=i32*]
  %k309 = alloca i32, align 4                     ; [#uses=6 type=i32*]
  %co310 = alloca i32, align 4                    ; [#uses=7 type=i32*]
  %ci311 = alloca i32, align 4                    ; [#uses=6 type=i32*]
  %i312 = alloca i32, align 4                     ; [#uses=6 type=i32*]
  %i313 = alloca i32, align 4                     ; [#uses=6 type=i32*]
  %k314 = alloca i32, align 4                     ; [#uses=6 type=i32*]
  %co315 = alloca i32, align 4                    ; [#uses=6 type=i32*]
  %h316 = alloca i32, align 4                     ; [#uses=6 type=i32*]
  %w317 = alloca i32, align 4                     ; [#uses=6 type=i32*]
  %co318 = alloca i32, align 4                    ; [#uses=6 type=i32*]
  %h319 = alloca i32, align 4                     ; [#uses=6 type=i32*]
  %w320 = alloca i32, align 4                     ; [#uses=6 type=i32*]
  %co321 = alloca i32, align 4                    ; [#uses=7 type=i32*]
  %ci322 = alloca i32, align 4                    ; [#uses=6 type=i32*]
  %i323 = alloca i32, align 4                     ; [#uses=6 type=i32*]
  %i324 = alloca i32, align 4                     ; [#uses=6 type=i32*]
  %k325 = alloca i32, align 4                     ; [#uses=6 type=i32*]
  %co326 = alloca i32, align 4                    ; [#uses=6 type=i32*]
  %w327 = alloca i32, align 4                     ; [#uses=6 type=i32*]
  %h328 = alloca i32, align 4                     ; [#uses=6 type=i32*]
  %i329 = alloca i32, align 4                     ; [#uses=6 type=i32*]
  %i330 = alloca i32, align 4                     ; [#uses=6 type=i32*]
  %k331 = alloca i32, align 4                     ; [#uses=6 type=i32*]
  %co332 = alloca i32, align 4                    ; [#uses=7 type=i32*]
  %ci333 = alloca i32, align 4                    ; [#uses=6 type=i32*]
  %i334 = alloca i32, align 4                     ; [#uses=6 type=i32*]
  %i335 = alloca i32, align 4                     ; [#uses=6 type=i32*]
  %k336 = alloca i32, align 4                     ; [#uses=6 type=i32*]
  %co337 = alloca i32, align 4                    ; [#uses=6 type=i32*]
  %h338 = alloca i32, align 4                     ; [#uses=6 type=i32*]
  %w339 = alloca i32, align 4                     ; [#uses=6 type=i32*]
  %co340 = alloca i32, align 4                    ; [#uses=6 type=i32*]
  %h341 = alloca i32, align 4                     ; [#uses=6 type=i32*]
  %w342 = alloca i32, align 4                     ; [#uses=6 type=i32*]
  %co343 = alloca i32, align 4                    ; [#uses=7 type=i32*]
  %ci344 = alloca i32, align 4                    ; [#uses=6 type=i32*]
  %i345 = alloca i32, align 4                     ; [#uses=6 type=i32*]
  %i346 = alloca i32, align 4                     ; [#uses=6 type=i32*]
  %k347 = alloca i32, align 4                     ; [#uses=6 type=i32*]
  %co348 = alloca i32, align 4                    ; [#uses=6 type=i32*]
  %w349 = alloca i32, align 4                     ; [#uses=6 type=i32*]
  %h350 = alloca i32, align 4                     ; [#uses=6 type=i32*]
  %i351 = alloca i32, align 4                     ; [#uses=6 type=i32*]
  %i352 = alloca i32, align 4                     ; [#uses=6 type=i32*]
  %k353 = alloca i32, align 4                     ; [#uses=6 type=i32*]
  %co354 = alloca i32, align 4                    ; [#uses=7 type=i32*]
  %ci355 = alloca i32, align 4                    ; [#uses=6 type=i32*]
  %i356 = alloca i32, align 4                     ; [#uses=6 type=i32*]
  %i357 = alloca i32, align 4                     ; [#uses=6 type=i32*]
  %k358 = alloca i32, align 4                     ; [#uses=6 type=i32*]
  %co359 = alloca i32, align 4                    ; [#uses=6 type=i32*]
  %h360 = alloca i32, align 4                     ; [#uses=6 type=i32*]
  %w361 = alloca i32, align 4                     ; [#uses=6 type=i32*]
  %ci362 = alloca i32, align 4                    ; [#uses=6 type=i32*]
  %w363 = alloca i32, align 4                     ; [#uses=6 type=i32*]
  %h364 = alloca i32, align 4                     ; [#uses=6 type=i32*]
  %i365 = alloca i32, align 4                     ; [#uses=5 type=i32*]
  store [3 x [32 x [32 x float]]]* %image, [3 x [32 x [32 x float]]]** %1, align 8
  call void @llvm.dbg.declare(metadata !{[3 x [32 x [32 x float]]]** %1}, metadata !5698), !dbg !5699 ; [debug line = 84:25] [debug variable = image]
  store [3 x [3 x [3 x float]]]* %conv1_weight, [3 x [3 x [3 x float]]]** %2, align 8
  call void @llvm.dbg.declare(metadata !{[3 x [3 x [3 x float]]]** %2}, metadata !5700), !dbg !5701 ; [debug line = 85:9] [debug variable = conv1_weight]
  store [1 x [3 x [3 x float]]]* %shuffle_conv_3x3, [1 x [3 x [3 x float]]]** %3, align 8
  call void @llvm.dbg.declare(metadata !{[1 x [3 x [3 x float]]]** %3}, metadata !5702), !dbg !5703 ; [debug line = 86:9] [debug variable = shuffle_conv_3x3]
  store [24 x [1 x [1 x float]]]* %shuffle_conv_1x1, [24 x [1 x [1 x float]]]** %4, align 8
  call void @llvm.dbg.declare(metadata !{[24 x [1 x [1 x float]]]** %4}, metadata !5704), !dbg !5705 ; [debug line = 87:9] [debug variable = shuffle_conv_1x1]
  store [192 x [1 x [1 x float]]]* %conv_last_weight, [192 x [1 x [1 x float]]]** %5, align 8
  call void @llvm.dbg.declare(metadata !{[192 x [1 x [1 x float]]]** %5}, metadata !5706), !dbg !5707 ; [debug line = 88:9] [debug variable = conv_last_weight]
  store [512 x float]* %fc_weight, [512 x float]** %6, align 8
  call void @llvm.dbg.declare(metadata !{[512 x float]** %6}, metadata !5708), !dbg !5709 ; [debug line = 89:9] [debug variable = fc_weight]
  store float* %bias, float** %7, align 8
  call void @llvm.dbg.declare(metadata !{float** %7}, metadata !5710), !dbg !5711 ; [debug line = 90:9] [debug variable = bias]
  store float* %fc_output, float** %8, align 8
  call void @llvm.dbg.declare(metadata !{float** %8}, metadata !5712), !dbg !5713 ; [debug line = 91:9] [debug variable = fc_output]
  %9 = load [24 x [1 x [1 x float]]]** %4, align 8, !dbg !5714 ; [#uses=1 type=[24 x [1 x [1 x float]]]*] [debug line = 93:2]
  call void (...)* @_ssdm_SpecArrayDimSize([24 x [1 x [1 x float]]]* %9, i32 5496) nounwind, !dbg !5714 ; [debug line = 93:2]
  %10 = load [3 x [32 x [32 x float]]]** %1, align 8, !dbg !5716 ; [#uses=1 type=[3 x [32 x [32 x float]]]*] [debug line = 93:48]
  call void (...)* @_ssdm_SpecArrayDimSize([3 x [32 x [32 x float]]]* %10, i32 1) nounwind, !dbg !5716 ; [debug line = 93:48]
  %11 = load [512 x float]** %6, align 8, !dbg !5717 ; [#uses=1 type=[512 x float]*] [debug line = 93:80]
  call void (...)* @_ssdm_SpecArrayDimSize([512 x float]* %11, i32 10) nounwind, !dbg !5717 ; [debug line = 93:80]
  %12 = load [192 x [1 x [1 x float]]]** %5, align 8, !dbg !5718 ; [#uses=1 type=[192 x [1 x [1 x float]]]*] [debug line = 93:117]
  call void (...)* @_ssdm_SpecArrayDimSize([192 x [1 x [1 x float]]]* %12, i32 512) nounwind, !dbg !5718 ; [debug line = 93:117]
  %13 = load float** %7, align 8, !dbg !5719      ; [#uses=1 type=float*] [debug line = 93:162]
  call void (...)* @_ssdm_SpecArrayDimSize(float* %13, i32 3618) nounwind, !dbg !5719 ; [debug line = 93:162]
  %14 = load float** %8, align 8, !dbg !5720      ; [#uses=1 type=float*] [debug line = 93:196]
  call void (...)* @_ssdm_SpecArrayDimSize(float* %14, i32 1000) nounwind, !dbg !5720 ; [debug line = 93:196]
  %15 = load [3 x [3 x [3 x float]]]** %2, align 8, !dbg !5721 ; [#uses=1 type=[3 x [3 x [3 x float]]]*] [debug line = 93:235]
  call void (...)* @_ssdm_SpecArrayDimSize([3 x [3 x [3 x float]]]* %15, i32 24) nounwind, !dbg !5721 ; [debug line = 93:235]
  %16 = load [1 x [3 x [3 x float]]]** %3, align 8, !dbg !5722 ; [#uses=1 type=[1 x [3 x [3 x float]]]*] [debug line = 93:0]
  call void (...)* @_ssdm_SpecArrayDimSize([1 x [3 x [3 x float]]]* %16, i32 1080) nounwind, !dbg !5722 ; [debug line = 93:0]
  call void @llvm.dbg.declare(metadata !{i32* %i}, metadata !5723), !dbg !5725 ; [debug line = 97:14] [debug variable = i]
  store i32 0, i32* %i, align 4, !dbg !5726       ; [debug line = 97:19]
  br label %17, !dbg !5726                        ; [debug line = 97:19]

; <label>:17                                      ; preds = %29, %0
  %18 = load i32* %i, align 4, !dbg !5726         ; [#uses=1 type=i32] [debug line = 97:19]
  %19 = icmp slt i32 %18, 24, !dbg !5726          ; [#uses=1 type=i1] [debug line = 97:19]
  br i1 %19, label %20, label %32, !dbg !5726     ; [debug line = 97:19]

; <label>:20                                      ; preds = %17
  %21 = load i32* %i, align 4, !dbg !5727         ; [#uses=1 type=i32] [debug line = 98:10]
  %22 = sext i32 %21 to i64, !dbg !5727           ; [#uses=1 type=i64] [debug line = 98:10]
  %23 = load float** %7, align 8, !dbg !5727      ; [#uses=1 type=float*] [debug line = 98:10]
  %24 = getelementptr inbounds float* %23, i64 %22, !dbg !5727 ; [#uses=1 type=float*] [debug line = 98:10]
  %25 = load float* %24, align 4, !dbg !5727      ; [#uses=1 type=float] [debug line = 98:10]
  %26 = load i32* %i, align 4, !dbg !5727         ; [#uses=1 type=i32] [debug line = 98:10]
  %27 = sext i32 %26 to i64, !dbg !5727           ; [#uses=1 type=i64] [debug line = 98:10]
  %28 = getelementptr inbounds [24 x float]* @conv1_bias, i32 0, i64 %27, !dbg !5727 ; [#uses=1 type=float*] [debug line = 98:10]
  store float %25, float* %28, align 4, !dbg !5727 ; [debug line = 98:10]
  br label %29, !dbg !5729                        ; [debug line = 99:6]

; <label>:29                                      ; preds = %20
  %30 = load i32* %i, align 4, !dbg !5730         ; [#uses=1 type=i32] [debug line = 97:27]
  %31 = add nsw i32 %30, 1, !dbg !5730            ; [#uses=1 type=i32] [debug line = 97:27]
  store i32 %31, i32* %i, align 4, !dbg !5730     ; [debug line = 97:27]
  br label %17, !dbg !5730                        ; [debug line = 97:27]

; <label>:32                                      ; preds = %17
  call void @llvm.dbg.declare(metadata !{i32* %i1}, metadata !5731), !dbg !5733 ; [debug line = 100:14] [debug variable = i]
  store i32 0, i32* %i1, align 4, !dbg !5734      ; [debug line = 100:19]
  br label %33, !dbg !5734                        ; [debug line = 100:19]

; <label>:33                                      ; preds = %46, %32
  %34 = load i32* %i1, align 4, !dbg !5734        ; [#uses=1 type=i32] [debug line = 100:19]
  %35 = icmp slt i32 %34, 512, !dbg !5734         ; [#uses=1 type=i1] [debug line = 100:19]
  br i1 %35, label %36, label %49, !dbg !5734     ; [debug line = 100:19]

; <label>:36                                      ; preds = %33
  %37 = load i32* %i1, align 4, !dbg !5735        ; [#uses=1 type=i32] [debug line = 101:10]
  %38 = add nsw i32 3096, %37, !dbg !5735         ; [#uses=1 type=i32] [debug line = 101:10]
  %39 = sext i32 %38 to i64, !dbg !5735           ; [#uses=1 type=i64] [debug line = 101:10]
  %40 = load float** %7, align 8, !dbg !5735      ; [#uses=1 type=float*] [debug line = 101:10]
  %41 = getelementptr inbounds float* %40, i64 %39, !dbg !5735 ; [#uses=1 type=float*] [debug line = 101:10]
  %42 = load float* %41, align 4, !dbg !5735      ; [#uses=1 type=float] [debug line = 101:10]
  %43 = load i32* %i1, align 4, !dbg !5735        ; [#uses=1 type=i32] [debug line = 101:10]
  %44 = sext i32 %43 to i64, !dbg !5735           ; [#uses=1 type=i64] [debug line = 101:10]
  %45 = getelementptr inbounds [512 x float]* @conv_last_bias, i32 0, i64 %44, !dbg !5735 ; [#uses=1 type=float*] [debug line = 101:10]
  store float %42, float* %45, align 4, !dbg !5735 ; [debug line = 101:10]
  br label %46, !dbg !5737                        ; [debug line = 102:6]

; <label>:46                                      ; preds = %36
  %47 = load i32* %i1, align 4, !dbg !5738        ; [#uses=1 type=i32] [debug line = 100:31]
  %48 = add nsw i32 %47, 1, !dbg !5738            ; [#uses=1 type=i32] [debug line = 100:31]
  store i32 %48, i32* %i1, align 4, !dbg !5738    ; [debug line = 100:31]
  br label %33, !dbg !5738                        ; [debug line = 100:31]

; <label>:49                                      ; preds = %33
  call void @llvm.dbg.declare(metadata !{i32* %i2}, metadata !5739), !dbg !5741 ; [debug line = 103:14] [debug variable = i]
  store i32 0, i32* %i2, align 4, !dbg !5742      ; [debug line = 103:19]
  br label %50, !dbg !5742                        ; [debug line = 103:19]

; <label>:50                                      ; preds = %63, %49
  %51 = load i32* %i2, align 4, !dbg !5742        ; [#uses=1 type=i32] [debug line = 103:19]
  %52 = icmp slt i32 %51, 10, !dbg !5742          ; [#uses=1 type=i1] [debug line = 103:19]
  br i1 %52, label %53, label %66, !dbg !5742     ; [debug line = 103:19]

; <label>:53                                      ; preds = %50
  %54 = load i32* %i2, align 4, !dbg !5743        ; [#uses=1 type=i32] [debug line = 104:10]
  %55 = add nsw i32 3608, %54, !dbg !5743         ; [#uses=1 type=i32] [debug line = 104:10]
  %56 = sext i32 %55 to i64, !dbg !5743           ; [#uses=1 type=i64] [debug line = 104:10]
  %57 = load float** %7, align 8, !dbg !5743      ; [#uses=1 type=float*] [debug line = 104:10]
  %58 = getelementptr inbounds float* %57, i64 %56, !dbg !5743 ; [#uses=1 type=float*] [debug line = 104:10]
  %59 = load float* %58, align 4, !dbg !5743      ; [#uses=1 type=float] [debug line = 104:10]
  %60 = load i32* %i2, align 4, !dbg !5743        ; [#uses=1 type=i32] [debug line = 104:10]
  %61 = sext i32 %60 to i64, !dbg !5743           ; [#uses=1 type=i64] [debug line = 104:10]
  %62 = getelementptr inbounds [10 x float]* @fc_bias, i32 0, i64 %61, !dbg !5743 ; [#uses=1 type=float*] [debug line = 104:10]
  store float %59, float* %62, align 4, !dbg !5743 ; [debug line = 104:10]
  br label %63, !dbg !5745                        ; [debug line = 105:6]

; <label>:63                                      ; preds = %53
  %64 = load i32* %i2, align 4, !dbg !5746        ; [#uses=1 type=i32] [debug line = 103:25]
  %65 = add nsw i32 %64, 1, !dbg !5746            ; [#uses=1 type=i32] [debug line = 103:25]
  store i32 %65, i32* %i2, align 4, !dbg !5746    ; [debug line = 103:25]
  br label %50, !dbg !5746                        ; [debug line = 103:25]

; <label>:66                                      ; preds = %50
  call void @llvm.dbg.declare(metadata !{i32* %ci}, metadata !5747), !dbg !5749 ; [debug line = 108:13] [debug variable = ci]
  store i32 0, i32* %ci, align 4, !dbg !5750      ; [debug line = 108:19]
  br label %67, !dbg !5750                        ; [debug line = 108:19]

; <label>:67                                      ; preds = %110, %66
  %68 = load i32* %ci, align 4, !dbg !5750        ; [#uses=1 type=i32] [debug line = 108:19]
  %69 = icmp slt i32 %68, 3, !dbg !5750           ; [#uses=1 type=i1] [debug line = 108:19]
  br i1 %69, label %70, label %113, !dbg !5750    ; [debug line = 108:19]

; <label>:70                                      ; preds = %67
  call void @llvm.dbg.declare(metadata !{i32* %w}, metadata !5751), !dbg !5754 ; [debug line = 109:14] [debug variable = w]
  store i32 0, i32* %w, align 4, !dbg !5755       ; [debug line = 109:19]
  br label %71, !dbg !5755                        ; [debug line = 109:19]

; <label>:71                                      ; preds = %106, %70
  %72 = load i32* %w, align 4, !dbg !5755         ; [#uses=1 type=i32] [debug line = 109:19]
  %73 = icmp slt i32 %72, 32, !dbg !5755          ; [#uses=1 type=i1] [debug line = 109:19]
  br i1 %73, label %74, label %109, !dbg !5755    ; [debug line = 109:19]

; <label>:74                                      ; preds = %71
  call void @llvm.dbg.declare(metadata !{i32* %h}, metadata !5756), !dbg !5759 ; [debug line = 110:15] [debug variable = h]
  store i32 0, i32* %h, align 4, !dbg !5760       ; [debug line = 110:20]
  br label %75, !dbg !5760                        ; [debug line = 110:20]

; <label>:75                                      ; preds = %102, %74
  %76 = load i32* %h, align 4, !dbg !5760         ; [#uses=1 type=i32] [debug line = 110:20]
  %77 = icmp slt i32 %76, 32, !dbg !5760          ; [#uses=1 type=i1] [debug line = 110:20]
  br i1 %77, label %78, label %105, !dbg !5760    ; [debug line = 110:20]

; <label>:78                                      ; preds = %75
  %79 = load i32* %h, align 4, !dbg !5761         ; [#uses=1 type=i32] [debug line = 111:8]
  %80 = sext i32 %79 to i64, !dbg !5761           ; [#uses=1 type=i64] [debug line = 111:8]
  %81 = load i32* %w, align 4, !dbg !5761         ; [#uses=1 type=i32] [debug line = 111:8]
  %82 = sext i32 %81 to i64, !dbg !5761           ; [#uses=1 type=i64] [debug line = 111:8]
  %83 = load i32* %ci, align 4, !dbg !5761        ; [#uses=1 type=i32] [debug line = 111:8]
  %84 = sext i32 %83 to i64, !dbg !5761           ; [#uses=1 type=i64] [debug line = 111:8]
  %85 = load [3 x [32 x [32 x float]]]** %1, align 8, !dbg !5761 ; [#uses=1 type=[3 x [32 x [32 x float]]]*] [debug line = 111:8]
  %86 = getelementptr inbounds [3 x [32 x [32 x float]]]* %85, i64 0, !dbg !5761 ; [#uses=1 type=[3 x [32 x [32 x float]]]*] [debug line = 111:8]
  %87 = getelementptr inbounds [3 x [32 x [32 x float]]]* %86, i32 0, i64 %84, !dbg !5761 ; [#uses=1 type=[32 x [32 x float]]*] [debug line = 111:8]
  %88 = getelementptr inbounds [32 x [32 x float]]* %87, i32 0, i64 %82, !dbg !5761 ; [#uses=1 type=[32 x float]*] [debug line = 111:8]
  %89 = getelementptr inbounds [32 x float]* %88, i32 0, i64 %80, !dbg !5761 ; [#uses=1 type=float*] [debug line = 111:8]
  %90 = load float* %89, align 4, !dbg !5761      ; [#uses=1 type=float] [debug line = 111:8]
  %91 = load i32* %h, align 4, !dbg !5761         ; [#uses=1 type=i32] [debug line = 111:8]
  %92 = add nsw i32 %91, 1, !dbg !5761            ; [#uses=1 type=i32] [debug line = 111:8]
  %93 = sext i32 %92 to i64, !dbg !5761           ; [#uses=1 type=i64] [debug line = 111:8]
  %94 = load i32* %w, align 4, !dbg !5761         ; [#uses=1 type=i32] [debug line = 111:8]
  %95 = add nsw i32 %94, 1, !dbg !5761            ; [#uses=1 type=i32] [debug line = 111:8]
  %96 = sext i32 %95 to i64, !dbg !5761           ; [#uses=1 type=i64] [debug line = 111:8]
  %97 = load i32* %ci, align 4, !dbg !5761        ; [#uses=1 type=i32] [debug line = 111:8]
  %98 = sext i32 %97 to i64, !dbg !5761           ; [#uses=1 type=i64] [debug line = 111:8]
  %99 = getelementptr inbounds [3 x [34 x [34 x float]]]* getelementptr inbounds ([1 x [3 x [34 x [34 x float]]]]* @image_p, i32 0, i64 0), i32 0, i64 %98, !dbg !5761 ; [#uses=1 type=[34 x [34 x float]]*] [debug line = 111:8]
  %100 = getelementptr inbounds [34 x [34 x float]]* %99, i32 0, i64 %96, !dbg !5761 ; [#uses=1 type=[34 x float]*] [debug line = 111:8]
  %101 = getelementptr inbounds [34 x float]* %100, i32 0, i64 %93, !dbg !5761 ; [#uses=1 type=float*] [debug line = 111:8]
  store float %90, float* %101, align 4, !dbg !5761 ; [debug line = 111:8]
  br label %102, !dbg !5763                       ; [debug line = 112:7]

; <label>:102                                     ; preds = %78
  %103 = load i32* %h, align 4, !dbg !5764        ; [#uses=1 type=i32] [debug line = 110:26]
  %104 = add nsw i32 %103, 1, !dbg !5764          ; [#uses=1 type=i32] [debug line = 110:26]
  store i32 %104, i32* %h, align 4, !dbg !5764    ; [debug line = 110:26]
  br label %75, !dbg !5764                        ; [debug line = 110:26]

; <label>:105                                     ; preds = %75
  br label %106, !dbg !5765                       ; [debug line = 113:6]

; <label>:106                                     ; preds = %105
  %107 = load i32* %w, align 4, !dbg !5766        ; [#uses=1 type=i32] [debug line = 109:26]
  %108 = add nsw i32 %107, 1, !dbg !5766          ; [#uses=1 type=i32] [debug line = 109:26]
  store i32 %108, i32* %w, align 4, !dbg !5766    ; [debug line = 109:26]
  br label %71, !dbg !5766                        ; [debug line = 109:26]

; <label>:109                                     ; preds = %71
  br label %110, !dbg !5767                       ; [debug line = 114:5]

; <label>:110                                     ; preds = %109
  %111 = load i32* %ci, align 4, !dbg !5768       ; [#uses=1 type=i32] [debug line = 108:28]
  %112 = add nsw i32 %111, 1, !dbg !5768          ; [#uses=1 type=i32] [debug line = 108:28]
  store i32 %112, i32* %ci, align 4, !dbg !5768   ; [debug line = 108:28]
  br label %67, !dbg !5768                        ; [debug line = 108:28]

; <label>:113                                     ; preds = %67
  %114 = load [3 x [3 x [3 x float]]]** %2, align 8, !dbg !5769 ; [#uses=1 type=[3 x [3 x [3 x float]]]*] [debug line = 116:5]
  call void @_Z7conv1_pPA3_A34_A34_fPA3_A3_A3_fPfPA24_S0_([3 x [34 x [34 x float]]]* getelementptr inbounds ([1 x [3 x [34 x [34 x float]]]]* @image_p, i32 0, i32 0), [3 x [3 x [3 x float]]]* %114, float* getelementptr inbounds ([24 x float]* @conv1_bias, i32 0, i32 0), [24 x [34 x [34 x float]]]* getelementptr inbounds ([1 x [24 x [34 x [34 x float]]]]* @conv1_output_p, i32 0, i32 0)), !dbg !5769 ; [debug line = 116:5]
  call void @llvm.dbg.declare(metadata !{i32* %co}, metadata !5770), !dbg !5772 ; [debug line = 122:13] [debug variable = co]
  store i32 0, i32* %co, align 4, !dbg !5773      ; [debug line = 122:19]
  br label %115, !dbg !5773                       ; [debug line = 122:19]

; <label>:115                                     ; preds = %145, %113
  %116 = load i32* %co, align 4, !dbg !5773       ; [#uses=1 type=i32] [debug line = 122:19]
  %117 = icmp slt i32 %116, 24, !dbg !5773        ; [#uses=1 type=i1] [debug line = 122:19]
  br i1 %117, label %118, label %148, !dbg !5773  ; [debug line = 122:19]

; <label>:118                                     ; preds = %115
  call void @llvm.dbg.declare(metadata !{i32* %ci3}, metadata !5774), !dbg !5776 ; [debug line = 123:17] [debug variable = ci]
  store i32 0, i32* %ci3, align 4, !dbg !5777     ; [debug line = 123:23]
  br label %119, !dbg !5777                       ; [debug line = 123:23]

; <label>:119                                     ; preds = %141, %118
  %120 = load i32* %ci3, align 4, !dbg !5777      ; [#uses=1 type=i32] [debug line = 123:23]
  %121 = icmp slt i32 %120, 24, !dbg !5777        ; [#uses=1 type=i1] [debug line = 123:23]
  br i1 %121, label %122, label %144, !dbg !5777  ; [debug line = 123:23]

; <label>:122                                     ; preds = %119
  %123 = load i32* %ci3, align 4, !dbg !5778      ; [#uses=1 type=i32] [debug line = 124:13]
  %124 = sext i32 %123 to i64, !dbg !5778         ; [#uses=1 type=i64] [debug line = 124:13]
  %125 = load i32* %co, align 4, !dbg !5778       ; [#uses=1 type=i32] [debug line = 124:13]
  %126 = sext i32 %125 to i64, !dbg !5778         ; [#uses=1 type=i64] [debug line = 124:13]
  %127 = load [24 x [1 x [1 x float]]]** %4, align 8, !dbg !5778 ; [#uses=1 type=[24 x [1 x [1 x float]]]*] [debug line = 124:13]
  %128 = getelementptr inbounds [24 x [1 x [1 x float]]]* %127, i64 %126, !dbg !5778 ; [#uses=1 type=[24 x [1 x [1 x float]]]*] [debug line = 124:13]
  %129 = getelementptr inbounds [24 x [1 x [1 x float]]]* %128, i32 0, i64 %124, !dbg !5778 ; [#uses=1 type=[1 x [1 x float]]*] [debug line = 124:13]
  %130 = getelementptr inbounds [1 x [1 x float]]* %129, i32 0, i64 0, !dbg !5778 ; [#uses=1 type=[1 x float]*] [debug line = 124:13]
  %131 = getelementptr inbounds [1 x float]* %130, i32 0, i64 0, !dbg !5778 ; [#uses=1 type=float*] [debug line = 124:13]
  %132 = load float* %131, align 4, !dbg !5778    ; [#uses=1 type=float] [debug line = 124:13]
  %133 = load i32* %ci3, align 4, !dbg !5778      ; [#uses=1 type=i32] [debug line = 124:13]
  %134 = sext i32 %133 to i64, !dbg !5778         ; [#uses=1 type=i64] [debug line = 124:13]
  %135 = load i32* %co, align 4, !dbg !5778       ; [#uses=1 type=i32] [debug line = 124:13]
  %136 = sext i32 %135 to i64, !dbg !5778         ; [#uses=1 type=i64] [debug line = 124:13]
  %137 = getelementptr inbounds [24 x [24 x [1 x [1 x float]]]]* @weights_24_24_1x1, i32 0, i64 %136, !dbg !5778 ; [#uses=1 type=[24 x [1 x [1 x float]]]*] [debug line = 124:13]
  %138 = getelementptr inbounds [24 x [1 x [1 x float]]]* %137, i32 0, i64 %134, !dbg !5778 ; [#uses=1 type=[1 x [1 x float]]*] [debug line = 124:13]
  %139 = getelementptr inbounds [1 x [1 x float]]* %138, i32 0, i64 0, !dbg !5778 ; [#uses=1 type=[1 x float]*] [debug line = 124:13]
  %140 = getelementptr inbounds [1 x float]* %139, i32 0, i64 0, !dbg !5778 ; [#uses=1 type=float*] [debug line = 124:13]
  store float %132, float* %140, align 4, !dbg !5778 ; [debug line = 124:13]
  br label %141, !dbg !5778                       ; [debug line = 124:13]

; <label>:141                                     ; preds = %122
  %142 = load i32* %ci3, align 4, !dbg !5779      ; [#uses=1 type=i32] [debug line = 123:33]
  %143 = add nsw i32 %142, 1, !dbg !5779          ; [#uses=1 type=i32] [debug line = 123:33]
  store i32 %143, i32* %ci3, align 4, !dbg !5779  ; [debug line = 123:33]
  br label %119, !dbg !5779                       ; [debug line = 123:33]

; <label>:144                                     ; preds = %119
  br label %145, !dbg !5780                       ; [debug line = 124:76]

; <label>:145                                     ; preds = %144
  %146 = load i32* %co, align 4, !dbg !5781       ; [#uses=1 type=i32] [debug line = 122:30]
  %147 = add nsw i32 %146, 1, !dbg !5781          ; [#uses=1 type=i32] [debug line = 122:30]
  store i32 %147, i32* %co, align 4, !dbg !5781   ; [debug line = 122:30]
  br label %115, !dbg !5781                       ; [debug line = 122:30]

; <label>:148                                     ; preds = %115
  call void @llvm.dbg.declare(metadata !{i32* %i4}, metadata !5782), !dbg !5784 ; [debug line = 126:13] [debug variable = i]
  store i32 0, i32* %i4, align 4, !dbg !5785      ; [debug line = 126:18]
  br label %149, !dbg !5785                       ; [debug line = 126:18]

; <label>:149                                     ; preds = %162, %148
  %150 = load i32* %i4, align 4, !dbg !5785       ; [#uses=1 type=i32] [debug line = 126:18]
  %151 = icmp slt i32 %150, 24, !dbg !5785        ; [#uses=1 type=i1] [debug line = 126:18]
  br i1 %151, label %152, label %165, !dbg !5785  ; [debug line = 126:18]

; <label>:152                                     ; preds = %149
  %153 = load i32* %i4, align 4, !dbg !5786       ; [#uses=1 type=i32] [debug line = 127:9]
  %154 = add nsw i32 %153, 24, !dbg !5786         ; [#uses=1 type=i32] [debug line = 127:9]
  %155 = sext i32 %154 to i64, !dbg !5786         ; [#uses=1 type=i64] [debug line = 127:9]
  %156 = load float** %7, align 8, !dbg !5786     ; [#uses=1 type=float*] [debug line = 127:9]
  %157 = getelementptr inbounds float* %156, i64 %155, !dbg !5786 ; [#uses=1 type=float*] [debug line = 127:9]
  %158 = load float* %157, align 4, !dbg !5786    ; [#uses=1 type=float] [debug line = 127:9]
  %159 = load i32* %i4, align 4, !dbg !5786       ; [#uses=1 type=i32] [debug line = 127:9]
  %160 = sext i32 %159 to i64, !dbg !5786         ; [#uses=1 type=i64] [debug line = 127:9]
  %161 = getelementptr inbounds [24 x float]* @bias_24, i32 0, i64 %160, !dbg !5786 ; [#uses=1 type=float*] [debug line = 127:9]
  store float %158, float* %161, align 4, !dbg !5786 ; [debug line = 127:9]
  br label %162, !dbg !5786                       ; [debug line = 127:9]

; <label>:162                                     ; preds = %152
  %163 = load i32* %i4, align 4, !dbg !5787       ; [#uses=1 type=i32] [debug line = 126:26]
  %164 = add nsw i32 %163, 1, !dbg !5787          ; [#uses=1 type=i32] [debug line = 126:26]
  store i32 %164, i32* %i4, align 4, !dbg !5787   ; [debug line = 126:26]
  br label %149, !dbg !5787                       ; [debug line = 126:26]

; <label>:165                                     ; preds = %149
  call void @_Z16subconv_1x1_32_pPA24_A34_A34_fPA24_A1_A1_fPfS2_([24 x [34 x [34 x float]]]* getelementptr inbounds ([1 x [24 x [34 x [34 x float]]]]* @conv1_output_p, i32 0, i32 0), [24 x [1 x [1 x float]]]* getelementptr inbounds ([24 x [24 x [1 x [1 x float]]]]* @weights_24_24_1x1, i32 0, i32 0), float* getelementptr inbounds ([24 x float]* @bias_24, i32 0, i32 0), [24 x [34 x [34 x float]]]* getelementptr inbounds ([1 x [24 x [34 x [34 x float]]]]* @ShuffleConvs_0_DownsampleUnit__conv1r_output_p, i32 0, i32 0)), !dbg !5788 ; [debug line = 129:2]
  call void @llvm.dbg.declare(metadata !{i32* %co5}, metadata !5789), !dbg !5791 ; [debug line = 134:13] [debug variable = co]
  store i32 0, i32* %co5, align 4, !dbg !5792     ; [debug line = 134:19]
  br label %166, !dbg !5792                       ; [debug line = 134:19]

; <label>:166                                     ; preds = %208, %165
  %167 = load i32* %co5, align 4, !dbg !5792      ; [#uses=1 type=i32] [debug line = 134:19]
  %168 = icmp slt i32 %167, 24, !dbg !5792        ; [#uses=1 type=i1] [debug line = 134:19]
  br i1 %168, label %169, label %211, !dbg !5792  ; [debug line = 134:19]

; <label>:169                                     ; preds = %166
  call void @llvm.dbg.declare(metadata !{i32* %w6}, metadata !5793), !dbg !5795 ; [debug line = 135:17] [debug variable = w]
  store i32 0, i32* %w6, align 4, !dbg !5796      ; [debug line = 135:22]
  br label %170, !dbg !5796                       ; [debug line = 135:22]

; <label>:170                                     ; preds = %204, %169
  %171 = load i32* %w6, align 4, !dbg !5796       ; [#uses=1 type=i32] [debug line = 135:22]
  %172 = icmp slt i32 %171, 3, !dbg !5796         ; [#uses=1 type=i1] [debug line = 135:22]
  br i1 %172, label %173, label %207, !dbg !5796  ; [debug line = 135:22]

; <label>:173                                     ; preds = %170
  call void @llvm.dbg.declare(metadata !{i32* %h7}, metadata !5797), !dbg !5799 ; [debug line = 136:21] [debug variable = h]
  store i32 0, i32* %h7, align 4, !dbg !5800      ; [debug line = 136:26]
  br label %174, !dbg !5800                       ; [debug line = 136:26]

; <label>:174                                     ; preds = %200, %173
  %175 = load i32* %h7, align 4, !dbg !5800       ; [#uses=1 type=i32] [debug line = 136:26]
  %176 = icmp slt i32 %175, 3, !dbg !5800         ; [#uses=1 type=i1] [debug line = 136:26]
  br i1 %176, label %177, label %203, !dbg !5800  ; [debug line = 136:26]

; <label>:177                                     ; preds = %174
  %178 = load i32* %h7, align 4, !dbg !5801       ; [#uses=1 type=i32] [debug line = 137:17]
  %179 = sext i32 %178 to i64, !dbg !5801         ; [#uses=1 type=i64] [debug line = 137:17]
  %180 = load i32* %w6, align 4, !dbg !5801       ; [#uses=1 type=i32] [debug line = 137:17]
  %181 = sext i32 %180 to i64, !dbg !5801         ; [#uses=1 type=i64] [debug line = 137:17]
  %182 = load i32* %co5, align 4, !dbg !5801      ; [#uses=1 type=i32] [debug line = 137:17]
  %183 = sext i32 %182 to i64, !dbg !5801         ; [#uses=1 type=i64] [debug line = 137:17]
  %184 = load [1 x [3 x [3 x float]]]** %3, align 8, !dbg !5801 ; [#uses=1 type=[1 x [3 x [3 x float]]]*] [debug line = 137:17]
  %185 = getelementptr inbounds [1 x [3 x [3 x float]]]* %184, i64 %183, !dbg !5801 ; [#uses=1 type=[1 x [3 x [3 x float]]]*] [debug line = 137:17]
  %186 = getelementptr inbounds [1 x [3 x [3 x float]]]* %185, i32 0, i64 0, !dbg !5801 ; [#uses=1 type=[3 x [3 x float]]*] [debug line = 137:17]
  %187 = getelementptr inbounds [3 x [3 x float]]* %186, i32 0, i64 %181, !dbg !5801 ; [#uses=1 type=[3 x float]*] [debug line = 137:17]
  %188 = getelementptr inbounds [3 x float]* %187, i32 0, i64 %179, !dbg !5801 ; [#uses=1 type=float*] [debug line = 137:17]
  %189 = load float* %188, align 4, !dbg !5801    ; [#uses=1 type=float] [debug line = 137:17]
  %190 = load i32* %h7, align 4, !dbg !5801       ; [#uses=1 type=i32] [debug line = 137:17]
  %191 = sext i32 %190 to i64, !dbg !5801         ; [#uses=1 type=i64] [debug line = 137:17]
  %192 = load i32* %w6, align 4, !dbg !5801       ; [#uses=1 type=i32] [debug line = 137:17]
  %193 = sext i32 %192 to i64, !dbg !5801         ; [#uses=1 type=i64] [debug line = 137:17]
  %194 = load i32* %co5, align 4, !dbg !5801      ; [#uses=1 type=i32] [debug line = 137:17]
  %195 = sext i32 %194 to i64, !dbg !5801         ; [#uses=1 type=i64] [debug line = 137:17]
  %196 = getelementptr inbounds [24 x [1 x [3 x [3 x float]]]]* @weights_24_1_3x3, i32 0, i64 %195, !dbg !5801 ; [#uses=1 type=[1 x [3 x [3 x float]]]*] [debug line = 137:17]
  %197 = getelementptr inbounds [1 x [3 x [3 x float]]]* %196, i32 0, i64 0, !dbg !5801 ; [#uses=1 type=[3 x [3 x float]]*] [debug line = 137:17]
  %198 = getelementptr inbounds [3 x [3 x float]]* %197, i32 0, i64 %193, !dbg !5801 ; [#uses=1 type=[3 x float]*] [debug line = 137:17]
  %199 = getelementptr inbounds [3 x float]* %198, i32 0, i64 %191, !dbg !5801 ; [#uses=1 type=float*] [debug line = 137:17]
  store float %189, float* %199, align 4, !dbg !5801 ; [debug line = 137:17]
  br label %200, !dbg !5801                       ; [debug line = 137:17]

; <label>:200                                     ; preds = %177
  %201 = load i32* %h7, align 4, !dbg !5802       ; [#uses=1 type=i32] [debug line = 136:33]
  %202 = add nsw i32 %201, 1, !dbg !5802          ; [#uses=1 type=i32] [debug line = 136:33]
  store i32 %202, i32* %h7, align 4, !dbg !5802   ; [debug line = 136:33]
  br label %174, !dbg !5802                       ; [debug line = 136:33]

; <label>:203                                     ; preds = %174
  br label %204, !dbg !5803                       ; [debug line = 137:77]

; <label>:204                                     ; preds = %203
  %205 = load i32* %w6, align 4, !dbg !5804       ; [#uses=1 type=i32] [debug line = 135:30]
  %206 = add nsw i32 %205, 1, !dbg !5804          ; [#uses=1 type=i32] [debug line = 135:30]
  store i32 %206, i32* %w6, align 4, !dbg !5804   ; [debug line = 135:30]
  br label %170, !dbg !5804                       ; [debug line = 135:30]

; <label>:207                                     ; preds = %170
  br label %208, !dbg !5805                       ; [debug line = 137:77]

; <label>:208                                     ; preds = %207
  %209 = load i32* %co5, align 4, !dbg !5806      ; [#uses=1 type=i32] [debug line = 134:26]
  %210 = add nsw i32 %209, 1, !dbg !5806          ; [#uses=1 type=i32] [debug line = 134:26]
  store i32 %210, i32* %co5, align 4, !dbg !5806  ; [debug line = 134:26]
  br label %166, !dbg !5806                       ; [debug line = 134:26]

; <label>:211                                     ; preds = %166
  call void @llvm.dbg.declare(metadata !{i32* %i8}, metadata !5807), !dbg !5809 ; [debug line = 138:13] [debug variable = i]
  store i32 0, i32* %i8, align 4, !dbg !5810      ; [debug line = 138:18]
  br label %212, !dbg !5810                       ; [debug line = 138:18]

; <label>:212                                     ; preds = %225, %211
  %213 = load i32* %i8, align 4, !dbg !5810       ; [#uses=1 type=i32] [debug line = 138:18]
  %214 = icmp slt i32 %213, 24, !dbg !5810        ; [#uses=1 type=i1] [debug line = 138:18]
  br i1 %214, label %215, label %228, !dbg !5810  ; [debug line = 138:18]

; <label>:215                                     ; preds = %212
  %216 = load i32* %i8, align 4, !dbg !5811       ; [#uses=1 type=i32] [debug line = 139:6]
  %217 = add nsw i32 %216, 48, !dbg !5811         ; [#uses=1 type=i32] [debug line = 139:6]
  %218 = sext i32 %217 to i64, !dbg !5811         ; [#uses=1 type=i64] [debug line = 139:6]
  %219 = load float** %7, align 8, !dbg !5811     ; [#uses=1 type=float*] [debug line = 139:6]
  %220 = getelementptr inbounds float* %219, i64 %218, !dbg !5811 ; [#uses=1 type=float*] [debug line = 139:6]
  %221 = load float* %220, align 4, !dbg !5811    ; [#uses=1 type=float] [debug line = 139:6]
  %222 = load i32* %i8, align 4, !dbg !5811       ; [#uses=1 type=i32] [debug line = 139:6]
  %223 = sext i32 %222 to i64, !dbg !5811         ; [#uses=1 type=i64] [debug line = 139:6]
  %224 = getelementptr inbounds [24 x float]* @bias_24, i32 0, i64 %223, !dbg !5811 ; [#uses=1 type=float*] [debug line = 139:6]
  store float %221, float* %224, align 4, !dbg !5811 ; [debug line = 139:6]
  br label %225, !dbg !5811                       ; [debug line = 139:6]

; <label>:225                                     ; preds = %215
  %226 = load i32* %i8, align 4, !dbg !5812       ; [#uses=1 type=i32] [debug line = 138:26]
  %227 = add nsw i32 %226, 1, !dbg !5812          ; [#uses=1 type=i32] [debug line = 138:26]
  store i32 %227, i32* %i8, align 4, !dbg !5812   ; [debug line = 138:26]
  br label %212, !dbg !5812                       ; [debug line = 138:26]

; <label>:228                                     ; preds = %212
  call void @_Z31subconv_3x3_32_stride_no_relu_pPA24_A34_A34_fPA1_A3_A3_fPfPA24_A18_A18_f([24 x [34 x [34 x float]]]* getelementptr inbounds ([1 x [24 x [34 x [34 x float]]]]* @ShuffleConvs_0_DownsampleUnit__conv1r_output_p, i32 0, i32 0), [1 x [3 x [3 x float]]]* getelementptr inbounds ([24 x [1 x [3 x [3 x float]]]]* @weights_24_1_3x3, i32 0, i32 0), float* getelementptr inbounds ([24 x float]* @bias_24, i32 0, i32 0), [24 x [18 x [18 x float]]]* getelementptr inbounds ([1 x [24 x [18 x [18 x float]]]]* @buffer0_1_24_16x16_p, i32 0, i32 0)), !dbg !5813 ; [debug line = 141:5]
  call void @llvm.dbg.declare(metadata !{i32* %co9}, metadata !5814), !dbg !5816 ; [debug line = 145:13] [debug variable = co]
  store i32 0, i32* %co9, align 4, !dbg !5817     ; [debug line = 145:19]
  br label %229, !dbg !5817                       ; [debug line = 145:19]

; <label>:229                                     ; preds = %260, %228
  %230 = load i32* %co9, align 4, !dbg !5817      ; [#uses=1 type=i32] [debug line = 145:19]
  %231 = icmp slt i32 %230, 24, !dbg !5817        ; [#uses=1 type=i1] [debug line = 145:19]
  br i1 %231, label %232, label %263, !dbg !5817  ; [debug line = 145:19]

; <label>:232                                     ; preds = %229
  call void @llvm.dbg.declare(metadata !{i32* %ci10}, metadata !5818), !dbg !5820 ; [debug line = 146:14] [debug variable = ci]
  store i32 0, i32* %ci10, align 4, !dbg !5821    ; [debug line = 146:20]
  br label %233, !dbg !5821                       ; [debug line = 146:20]

; <label>:233                                     ; preds = %256, %232
  %234 = load i32* %ci10, align 4, !dbg !5821     ; [#uses=1 type=i32] [debug line = 146:20]
  %235 = icmp slt i32 %234, 24, !dbg !5821        ; [#uses=1 type=i1] [debug line = 146:20]
  br i1 %235, label %236, label %259, !dbg !5821  ; [debug line = 146:20]

; <label>:236                                     ; preds = %233
  %237 = load i32* %ci10, align 4, !dbg !5822     ; [#uses=1 type=i32] [debug line = 147:10]
  %238 = sext i32 %237 to i64, !dbg !5822         ; [#uses=1 type=i64] [debug line = 147:10]
  %239 = load i32* %co9, align 4, !dbg !5822      ; [#uses=1 type=i32] [debug line = 147:10]
  %240 = add nsw i32 %239, 24, !dbg !5822         ; [#uses=1 type=i32] [debug line = 147:10]
  %241 = sext i32 %240 to i64, !dbg !5822         ; [#uses=1 type=i64] [debug line = 147:10]
  %242 = load [24 x [1 x [1 x float]]]** %4, align 8, !dbg !5822 ; [#uses=1 type=[24 x [1 x [1 x float]]]*] [debug line = 147:10]
  %243 = getelementptr inbounds [24 x [1 x [1 x float]]]* %242, i64 %241, !dbg !5822 ; [#uses=1 type=[24 x [1 x [1 x float]]]*] [debug line = 147:10]
  %244 = getelementptr inbounds [24 x [1 x [1 x float]]]* %243, i32 0, i64 %238, !dbg !5822 ; [#uses=1 type=[1 x [1 x float]]*] [debug line = 147:10]
  %245 = getelementptr inbounds [1 x [1 x float]]* %244, i32 0, i64 0, !dbg !5822 ; [#uses=1 type=[1 x float]*] [debug line = 147:10]
  %246 = getelementptr inbounds [1 x float]* %245, i32 0, i64 0, !dbg !5822 ; [#uses=1 type=float*] [debug line = 147:10]
  %247 = load float* %246, align 4, !dbg !5822    ; [#uses=1 type=float] [debug line = 147:10]
  %248 = load i32* %ci10, align 4, !dbg !5822     ; [#uses=1 type=i32] [debug line = 147:10]
  %249 = sext i32 %248 to i64, !dbg !5822         ; [#uses=1 type=i64] [debug line = 147:10]
  %250 = load i32* %co9, align 4, !dbg !5822      ; [#uses=1 type=i32] [debug line = 147:10]
  %251 = sext i32 %250 to i64, !dbg !5822         ; [#uses=1 type=i64] [debug line = 147:10]
  %252 = getelementptr inbounds [24 x [24 x [1 x [1 x float]]]]* @weights_24_24_1x1, i32 0, i64 %251, !dbg !5822 ; [#uses=1 type=[24 x [1 x [1 x float]]]*] [debug line = 147:10]
  %253 = getelementptr inbounds [24 x [1 x [1 x float]]]* %252, i32 0, i64 %249, !dbg !5822 ; [#uses=1 type=[1 x [1 x float]]*] [debug line = 147:10]
  %254 = getelementptr inbounds [1 x [1 x float]]* %253, i32 0, i64 0, !dbg !5822 ; [#uses=1 type=[1 x float]*] [debug line = 147:10]
  %255 = getelementptr inbounds [1 x float]* %254, i32 0, i64 0, !dbg !5822 ; [#uses=1 type=float*] [debug line = 147:10]
  store float %247, float* %255, align 4, !dbg !5822 ; [debug line = 147:10]
  br label %256, !dbg !5822                       ; [debug line = 147:10]

; <label>:256                                     ; preds = %236
  %257 = load i32* %ci10, align 4, !dbg !5823     ; [#uses=1 type=i32] [debug line = 146:30]
  %258 = add nsw i32 %257, 1, !dbg !5823          ; [#uses=1 type=i32] [debug line = 146:30]
  store i32 %258, i32* %ci10, align 4, !dbg !5823 ; [debug line = 146:30]
  br label %233, !dbg !5823                       ; [debug line = 146:30]

; <label>:259                                     ; preds = %233
  br label %260, !dbg !5824                       ; [debug line = 147:76]

; <label>:260                                     ; preds = %259
  %261 = load i32* %co9, align 4, !dbg !5825      ; [#uses=1 type=i32] [debug line = 145:30]
  %262 = add nsw i32 %261, 1, !dbg !5825          ; [#uses=1 type=i32] [debug line = 145:30]
  store i32 %262, i32* %co9, align 4, !dbg !5825  ; [debug line = 145:30]
  br label %229, !dbg !5825                       ; [debug line = 145:30]

; <label>:263                                     ; preds = %229
  call void @llvm.dbg.declare(metadata !{i32* %i11}, metadata !5826), !dbg !5828 ; [debug line = 148:13] [debug variable = i]
  store i32 0, i32* %i11, align 4, !dbg !5829     ; [debug line = 148:18]
  br label %264, !dbg !5829                       ; [debug line = 148:18]

; <label>:264                                     ; preds = %277, %263
  %265 = load i32* %i11, align 4, !dbg !5829      ; [#uses=1 type=i32] [debug line = 148:18]
  %266 = icmp slt i32 %265, 24, !dbg !5829        ; [#uses=1 type=i1] [debug line = 148:18]
  br i1 %266, label %267, label %280, !dbg !5829  ; [debug line = 148:18]

; <label>:267                                     ; preds = %264
  %268 = load i32* %i11, align 4, !dbg !5830      ; [#uses=1 type=i32] [debug line = 149:9]
  %269 = add nsw i32 %268, 72, !dbg !5830         ; [#uses=1 type=i32] [debug line = 149:9]
  %270 = sext i32 %269 to i64, !dbg !5830         ; [#uses=1 type=i64] [debug line = 149:9]
  %271 = load float** %7, align 8, !dbg !5830     ; [#uses=1 type=float*] [debug line = 149:9]
  %272 = getelementptr inbounds float* %271, i64 %270, !dbg !5830 ; [#uses=1 type=float*] [debug line = 149:9]
  %273 = load float* %272, align 4, !dbg !5830    ; [#uses=1 type=float] [debug line = 149:9]
  %274 = load i32* %i11, align 4, !dbg !5830      ; [#uses=1 type=i32] [debug line = 149:9]
  %275 = sext i32 %274 to i64, !dbg !5830         ; [#uses=1 type=i64] [debug line = 149:9]
  %276 = getelementptr inbounds [24 x float]* @bias_24, i32 0, i64 %275, !dbg !5830 ; [#uses=1 type=float*] [debug line = 149:9]
  store float %273, float* %276, align 4, !dbg !5830 ; [debug line = 149:9]
  br label %277, !dbg !5830                       ; [debug line = 149:9]

; <label>:277                                     ; preds = %267
  %278 = load i32* %i11, align 4, !dbg !5831      ; [#uses=1 type=i32] [debug line = 148:26]
  %279 = add nsw i32 %278, 1, !dbg !5831          ; [#uses=1 type=i32] [debug line = 148:26]
  store i32 %279, i32* %i11, align 4, !dbg !5831  ; [debug line = 148:26]
  br label %264, !dbg !5831                       ; [debug line = 148:26]

; <label>:280                                     ; preds = %264
  call void @_Z16subconv_1x1_16_pPA24_A18_A18_fPA24_A1_A1_fPfS2_([24 x [18 x [18 x float]]]* getelementptr inbounds ([1 x [24 x [18 x [18 x float]]]]* @buffer0_1_24_16x16_p, i32 0, i32 0), [24 x [1 x [1 x float]]]* getelementptr inbounds ([24 x [24 x [1 x [1 x float]]]]* @weights_24_24_1x1, i32 0, i32 0), float* getelementptr inbounds ([24 x float]* @bias_24, i32 0, i32 0), [24 x [18 x [18 x float]]]* getelementptr inbounds ([1 x [24 x [18 x [18 x float]]]]* @buffer1_1_24_16x16_p, i32 0, i32 0)), !dbg !5832 ; [debug line = 151:2]
  call void @_Z14shuffle_24_l_pPA24_A18_A18_fPA48_S0_([24 x [18 x [18 x float]]]* getelementptr inbounds ([1 x [24 x [18 x [18 x float]]]]* @buffer1_1_24_16x16_p, i32 0, i32 0), [48 x [18 x [18 x float]]]* getelementptr inbounds ([1 x [48 x [18 x [18 x float]]]]* @downsampleunit0_output_p, i32 0, i32 0)), !dbg !5833 ; [debug line = 156:5]
  call void @llvm.dbg.declare(metadata !{i32* %co12}, metadata !5834), !dbg !5836 ; [debug line = 159:13] [debug variable = co]
  store i32 0, i32* %co12, align 4, !dbg !5837    ; [debug line = 159:19]
  br label %281, !dbg !5837                       ; [debug line = 159:19]

; <label>:281                                     ; preds = %324, %280
  %282 = load i32* %co12, align 4, !dbg !5837     ; [#uses=1 type=i32] [debug line = 159:19]
  %283 = icmp slt i32 %282, 24, !dbg !5837        ; [#uses=1 type=i1] [debug line = 159:19]
  br i1 %283, label %284, label %327, !dbg !5837  ; [debug line = 159:19]

; <label>:284                                     ; preds = %281
  call void @llvm.dbg.declare(metadata !{i32* %w13}, metadata !5838), !dbg !5840 ; [debug line = 160:14] [debug variable = w]
  store i32 0, i32* %w13, align 4, !dbg !5841     ; [debug line = 160:19]
  br label %285, !dbg !5841                       ; [debug line = 160:19]

; <label>:285                                     ; preds = %320, %284
  %286 = load i32* %w13, align 4, !dbg !5841      ; [#uses=1 type=i32] [debug line = 160:19]
  %287 = icmp slt i32 %286, 3, !dbg !5841         ; [#uses=1 type=i1] [debug line = 160:19]
  br i1 %287, label %288, label %323, !dbg !5841  ; [debug line = 160:19]

; <label>:288                                     ; preds = %285
  call void @llvm.dbg.declare(metadata !{i32* %h14}, metadata !5842), !dbg !5844 ; [debug line = 161:18] [debug variable = h]
  store i32 0, i32* %h14, align 4, !dbg !5845     ; [debug line = 161:23]
  br label %289, !dbg !5845                       ; [debug line = 161:23]

; <label>:289                                     ; preds = %316, %288
  %290 = load i32* %h14, align 4, !dbg !5845      ; [#uses=1 type=i32] [debug line = 161:23]
  %291 = icmp slt i32 %290, 3, !dbg !5845         ; [#uses=1 type=i1] [debug line = 161:23]
  br i1 %291, label %292, label %319, !dbg !5845  ; [debug line = 161:23]

; <label>:292                                     ; preds = %289
  %293 = load i32* %h14, align 4, !dbg !5846      ; [#uses=1 type=i32] [debug line = 162:17]
  %294 = sext i32 %293 to i64, !dbg !5846         ; [#uses=1 type=i64] [debug line = 162:17]
  %295 = load i32* %w13, align 4, !dbg !5846      ; [#uses=1 type=i32] [debug line = 162:17]
  %296 = sext i32 %295 to i64, !dbg !5846         ; [#uses=1 type=i64] [debug line = 162:17]
  %297 = load i32* %co12, align 4, !dbg !5846     ; [#uses=1 type=i32] [debug line = 162:17]
  %298 = add nsw i32 %297, 24, !dbg !5846         ; [#uses=1 type=i32] [debug line = 162:17]
  %299 = sext i32 %298 to i64, !dbg !5846         ; [#uses=1 type=i64] [debug line = 162:17]
  %300 = load [1 x [3 x [3 x float]]]** %3, align 8, !dbg !5846 ; [#uses=1 type=[1 x [3 x [3 x float]]]*] [debug line = 162:17]
  %301 = getelementptr inbounds [1 x [3 x [3 x float]]]* %300, i64 %299, !dbg !5846 ; [#uses=1 type=[1 x [3 x [3 x float]]]*] [debug line = 162:17]
  %302 = getelementptr inbounds [1 x [3 x [3 x float]]]* %301, i32 0, i64 0, !dbg !5846 ; [#uses=1 type=[3 x [3 x float]]*] [debug line = 162:17]
  %303 = getelementptr inbounds [3 x [3 x float]]* %302, i32 0, i64 %296, !dbg !5846 ; [#uses=1 type=[3 x float]*] [debug line = 162:17]
  %304 = getelementptr inbounds [3 x float]* %303, i32 0, i64 %294, !dbg !5846 ; [#uses=1 type=float*] [debug line = 162:17]
  %305 = load float* %304, align 4, !dbg !5846    ; [#uses=1 type=float] [debug line = 162:17]
  %306 = load i32* %h14, align 4, !dbg !5846      ; [#uses=1 type=i32] [debug line = 162:17]
  %307 = sext i32 %306 to i64, !dbg !5846         ; [#uses=1 type=i64] [debug line = 162:17]
  %308 = load i32* %w13, align 4, !dbg !5846      ; [#uses=1 type=i32] [debug line = 162:17]
  %309 = sext i32 %308 to i64, !dbg !5846         ; [#uses=1 type=i64] [debug line = 162:17]
  %310 = load i32* %co12, align 4, !dbg !5846     ; [#uses=1 type=i32] [debug line = 162:17]
  %311 = sext i32 %310 to i64, !dbg !5846         ; [#uses=1 type=i64] [debug line = 162:17]
  %312 = getelementptr inbounds [24 x [1 x [3 x [3 x float]]]]* @weights_24_1_3x3, i32 0, i64 %311, !dbg !5846 ; [#uses=1 type=[1 x [3 x [3 x float]]]*] [debug line = 162:17]
  %313 = getelementptr inbounds [1 x [3 x [3 x float]]]* %312, i32 0, i64 0, !dbg !5846 ; [#uses=1 type=[3 x [3 x float]]*] [debug line = 162:17]
  %314 = getelementptr inbounds [3 x [3 x float]]* %313, i32 0, i64 %309, !dbg !5846 ; [#uses=1 type=[3 x float]*] [debug line = 162:17]
  %315 = getelementptr inbounds [3 x float]* %314, i32 0, i64 %307, !dbg !5846 ; [#uses=1 type=float*] [debug line = 162:17]
  store float %305, float* %315, align 4, !dbg !5846 ; [debug line = 162:17]
  br label %316, !dbg !5846                       ; [debug line = 162:17]

; <label>:316                                     ; preds = %292
  %317 = load i32* %h14, align 4, !dbg !5847      ; [#uses=1 type=i32] [debug line = 161:30]
  %318 = add nsw i32 %317, 1, !dbg !5847          ; [#uses=1 type=i32] [debug line = 161:30]
  store i32 %318, i32* %h14, align 4, !dbg !5847  ; [debug line = 161:30]
  br label %289, !dbg !5847                       ; [debug line = 161:30]

; <label>:319                                     ; preds = %289
  br label %320, !dbg !5848                       ; [debug line = 162:80]

; <label>:320                                     ; preds = %319
  %321 = load i32* %w13, align 4, !dbg !5849      ; [#uses=1 type=i32] [debug line = 160:27]
  %322 = add nsw i32 %321, 1, !dbg !5849          ; [#uses=1 type=i32] [debug line = 160:27]
  store i32 %322, i32* %w13, align 4, !dbg !5849  ; [debug line = 160:27]
  br label %285, !dbg !5849                       ; [debug line = 160:27]

; <label>:323                                     ; preds = %285
  br label %324, !dbg !5850                       ; [debug line = 162:80]

; <label>:324                                     ; preds = %323
  %325 = load i32* %co12, align 4, !dbg !5851     ; [#uses=1 type=i32] [debug line = 159:26]
  %326 = add nsw i32 %325, 1, !dbg !5851          ; [#uses=1 type=i32] [debug line = 159:26]
  store i32 %326, i32* %co12, align 4, !dbg !5851 ; [debug line = 159:26]
  br label %281, !dbg !5851                       ; [debug line = 159:26]

; <label>:327                                     ; preds = %281
  call void @llvm.dbg.declare(metadata !{i32* %i15}, metadata !5852), !dbg !5854 ; [debug line = 163:13] [debug variable = i]
  store i32 0, i32* %i15, align 4, !dbg !5855     ; [debug line = 163:18]
  br label %328, !dbg !5855                       ; [debug line = 163:18]

; <label>:328                                     ; preds = %341, %327
  %329 = load i32* %i15, align 4, !dbg !5855      ; [#uses=1 type=i32] [debug line = 163:18]
  %330 = icmp slt i32 %329, 24, !dbg !5855        ; [#uses=1 type=i1] [debug line = 163:18]
  br i1 %330, label %331, label %344, !dbg !5855  ; [debug line = 163:18]

; <label>:331                                     ; preds = %328
  %332 = load i32* %i15, align 4, !dbg !5856      ; [#uses=1 type=i32] [debug line = 164:9]
  %333 = add nsw i32 %332, 96, !dbg !5856         ; [#uses=1 type=i32] [debug line = 164:9]
  %334 = sext i32 %333 to i64, !dbg !5856         ; [#uses=1 type=i64] [debug line = 164:9]
  %335 = load float** %7, align 8, !dbg !5856     ; [#uses=1 type=float*] [debug line = 164:9]
  %336 = getelementptr inbounds float* %335, i64 %334, !dbg !5856 ; [#uses=1 type=float*] [debug line = 164:9]
  %337 = load float* %336, align 4, !dbg !5856    ; [#uses=1 type=float] [debug line = 164:9]
  %338 = load i32* %i15, align 4, !dbg !5856      ; [#uses=1 type=i32] [debug line = 164:9]
  %339 = sext i32 %338 to i64, !dbg !5856         ; [#uses=1 type=i64] [debug line = 164:9]
  %340 = getelementptr inbounds [24 x float]* @bias_24, i32 0, i64 %339, !dbg !5856 ; [#uses=1 type=float*] [debug line = 164:9]
  store float %337, float* %340, align 4, !dbg !5856 ; [debug line = 164:9]
  br label %341, !dbg !5856                       ; [debug line = 164:9]

; <label>:341                                     ; preds = %331
  %342 = load i32* %i15, align 4, !dbg !5857      ; [#uses=1 type=i32] [debug line = 163:26]
  %343 = add nsw i32 %342, 1, !dbg !5857          ; [#uses=1 type=i32] [debug line = 163:26]
  store i32 %343, i32* %i15, align 4, !dbg !5857  ; [debug line = 163:26]
  br label %328, !dbg !5857                       ; [debug line = 163:26]

; <label>:344                                     ; preds = %328
  call void @_Z31subconv_3x3_32_stride_no_relu_pPA24_A34_A34_fPA1_A3_A3_fPfPA24_A18_A18_f([24 x [34 x [34 x float]]]* getelementptr inbounds ([1 x [24 x [34 x [34 x float]]]]* @conv1_output_p, i32 0, i32 0), [1 x [3 x [3 x float]]]* getelementptr inbounds ([24 x [1 x [3 x [3 x float]]]]* @weights_24_1_3x3, i32 0, i32 0), float* getelementptr inbounds ([24 x float]* @bias_24, i32 0, i32 0), [24 x [18 x [18 x float]]]* getelementptr inbounds ([1 x [24 x [18 x [18 x float]]]]* @buffer0_1_24_16x16_p, i32 0, i32 0)), !dbg !5858 ; [debug line = 166:2]
  call void @llvm.dbg.declare(metadata !{i32* %co16}, metadata !5859), !dbg !5861 ; [debug line = 170:13] [debug variable = co]
  store i32 0, i32* %co16, align 4, !dbg !5862    ; [debug line = 170:19]
  br label %345, !dbg !5862                       ; [debug line = 170:19]

; <label>:345                                     ; preds = %376, %344
  %346 = load i32* %co16, align 4, !dbg !5862     ; [#uses=1 type=i32] [debug line = 170:19]
  %347 = icmp slt i32 %346, 24, !dbg !5862        ; [#uses=1 type=i1] [debug line = 170:19]
  br i1 %347, label %348, label %379, !dbg !5862  ; [debug line = 170:19]

; <label>:348                                     ; preds = %345
  call void @llvm.dbg.declare(metadata !{i32* %ci17}, metadata !5863), !dbg !5865 ; [debug line = 171:14] [debug variable = ci]
  store i32 0, i32* %ci17, align 4, !dbg !5866    ; [debug line = 171:20]
  br label %349, !dbg !5866                       ; [debug line = 171:20]

; <label>:349                                     ; preds = %372, %348
  %350 = load i32* %ci17, align 4, !dbg !5866     ; [#uses=1 type=i32] [debug line = 171:20]
  %351 = icmp slt i32 %350, 24, !dbg !5866        ; [#uses=1 type=i1] [debug line = 171:20]
  br i1 %351, label %352, label %375, !dbg !5866  ; [debug line = 171:20]

; <label>:352                                     ; preds = %349
  %353 = load i32* %ci17, align 4, !dbg !5867     ; [#uses=1 type=i32] [debug line = 172:10]
  %354 = sext i32 %353 to i64, !dbg !5867         ; [#uses=1 type=i64] [debug line = 172:10]
  %355 = load i32* %co16, align 4, !dbg !5867     ; [#uses=1 type=i32] [debug line = 172:10]
  %356 = add nsw i32 %355, 48, !dbg !5867         ; [#uses=1 type=i32] [debug line = 172:10]
  %357 = sext i32 %356 to i64, !dbg !5867         ; [#uses=1 type=i64] [debug line = 172:10]
  %358 = load [24 x [1 x [1 x float]]]** %4, align 8, !dbg !5867 ; [#uses=1 type=[24 x [1 x [1 x float]]]*] [debug line = 172:10]
  %359 = getelementptr inbounds [24 x [1 x [1 x float]]]* %358, i64 %357, !dbg !5867 ; [#uses=1 type=[24 x [1 x [1 x float]]]*] [debug line = 172:10]
  %360 = getelementptr inbounds [24 x [1 x [1 x float]]]* %359, i32 0, i64 %354, !dbg !5867 ; [#uses=1 type=[1 x [1 x float]]*] [debug line = 172:10]
  %361 = getelementptr inbounds [1 x [1 x float]]* %360, i32 0, i64 0, !dbg !5867 ; [#uses=1 type=[1 x float]*] [debug line = 172:10]
  %362 = getelementptr inbounds [1 x float]* %361, i32 0, i64 0, !dbg !5867 ; [#uses=1 type=float*] [debug line = 172:10]
  %363 = load float* %362, align 4, !dbg !5867    ; [#uses=1 type=float] [debug line = 172:10]
  %364 = load i32* %ci17, align 4, !dbg !5867     ; [#uses=1 type=i32] [debug line = 172:10]
  %365 = sext i32 %364 to i64, !dbg !5867         ; [#uses=1 type=i64] [debug line = 172:10]
  %366 = load i32* %co16, align 4, !dbg !5867     ; [#uses=1 type=i32] [debug line = 172:10]
  %367 = sext i32 %366 to i64, !dbg !5867         ; [#uses=1 type=i64] [debug line = 172:10]
  %368 = getelementptr inbounds [24 x [24 x [1 x [1 x float]]]]* @weights_24_24_1x1, i32 0, i64 %367, !dbg !5867 ; [#uses=1 type=[24 x [1 x [1 x float]]]*] [debug line = 172:10]
  %369 = getelementptr inbounds [24 x [1 x [1 x float]]]* %368, i32 0, i64 %365, !dbg !5867 ; [#uses=1 type=[1 x [1 x float]]*] [debug line = 172:10]
  %370 = getelementptr inbounds [1 x [1 x float]]* %369, i32 0, i64 0, !dbg !5867 ; [#uses=1 type=[1 x float]*] [debug line = 172:10]
  %371 = getelementptr inbounds [1 x float]* %370, i32 0, i64 0, !dbg !5867 ; [#uses=1 type=float*] [debug line = 172:10]
  store float %363, float* %371, align 4, !dbg !5867 ; [debug line = 172:10]
  br label %372, !dbg !5867                       ; [debug line = 172:10]

; <label>:372                                     ; preds = %352
  %373 = load i32* %ci17, align 4, !dbg !5868     ; [#uses=1 type=i32] [debug line = 171:30]
  %374 = add nsw i32 %373, 1, !dbg !5868          ; [#uses=1 type=i32] [debug line = 171:30]
  store i32 %374, i32* %ci17, align 4, !dbg !5868 ; [debug line = 171:30]
  br label %349, !dbg !5868                       ; [debug line = 171:30]

; <label>:375                                     ; preds = %349
  br label %376, !dbg !5869                       ; [debug line = 172:78]

; <label>:376                                     ; preds = %375
  %377 = load i32* %co16, align 4, !dbg !5870     ; [#uses=1 type=i32] [debug line = 170:30]
  %378 = add nsw i32 %377, 1, !dbg !5870          ; [#uses=1 type=i32] [debug line = 170:30]
  store i32 %378, i32* %co16, align 4, !dbg !5870 ; [debug line = 170:30]
  br label %345, !dbg !5870                       ; [debug line = 170:30]

; <label>:379                                     ; preds = %345
  call void @llvm.dbg.declare(metadata !{i32* %i18}, metadata !5871), !dbg !5873 ; [debug line = 173:13] [debug variable = i]
  store i32 0, i32* %i18, align 4, !dbg !5874     ; [debug line = 173:18]
  br label %380, !dbg !5874                       ; [debug line = 173:18]

; <label>:380                                     ; preds = %393, %379
  %381 = load i32* %i18, align 4, !dbg !5874      ; [#uses=1 type=i32] [debug line = 173:18]
  %382 = icmp slt i32 %381, 24, !dbg !5874        ; [#uses=1 type=i1] [debug line = 173:18]
  br i1 %382, label %383, label %396, !dbg !5874  ; [debug line = 173:18]

; <label>:383                                     ; preds = %380
  %384 = load i32* %i18, align 4, !dbg !5875      ; [#uses=1 type=i32] [debug line = 174:9]
  %385 = add nsw i32 %384, 120, !dbg !5875        ; [#uses=1 type=i32] [debug line = 174:9]
  %386 = sext i32 %385 to i64, !dbg !5875         ; [#uses=1 type=i64] [debug line = 174:9]
  %387 = load float** %7, align 8, !dbg !5875     ; [#uses=1 type=float*] [debug line = 174:9]
  %388 = getelementptr inbounds float* %387, i64 %386, !dbg !5875 ; [#uses=1 type=float*] [debug line = 174:9]
  %389 = load float* %388, align 4, !dbg !5875    ; [#uses=1 type=float] [debug line = 174:9]
  %390 = load i32* %i18, align 4, !dbg !5875      ; [#uses=1 type=i32] [debug line = 174:9]
  %391 = sext i32 %390 to i64, !dbg !5875         ; [#uses=1 type=i64] [debug line = 174:9]
  %392 = getelementptr inbounds [24 x float]* @bias_24, i32 0, i64 %391, !dbg !5875 ; [#uses=1 type=float*] [debug line = 174:9]
  store float %389, float* %392, align 4, !dbg !5875 ; [debug line = 174:9]
  br label %393, !dbg !5875                       ; [debug line = 174:9]

; <label>:393                                     ; preds = %383
  %394 = load i32* %i18, align 4, !dbg !5876      ; [#uses=1 type=i32] [debug line = 173:26]
  %395 = add nsw i32 %394, 1, !dbg !5876          ; [#uses=1 type=i32] [debug line = 173:26]
  store i32 %395, i32* %i18, align 4, !dbg !5876  ; [debug line = 173:26]
  br label %380, !dbg !5876                       ; [debug line = 173:26]

; <label>:396                                     ; preds = %380
  call void @_Z16subconv_1x1_16_pPA24_A18_A18_fPA24_A1_A1_fPfS2_([24 x [18 x [18 x float]]]* getelementptr inbounds ([1 x [24 x [18 x [18 x float]]]]* @buffer0_1_24_16x16_p, i32 0, i32 0), [24 x [1 x [1 x float]]]* getelementptr inbounds ([24 x [24 x [1 x [1 x float]]]]* @weights_24_24_1x1, i32 0, i32 0), float* getelementptr inbounds ([24 x float]* @bias_24, i32 0, i32 0), [24 x [18 x [18 x float]]]* getelementptr inbounds ([1 x [24 x [18 x [18 x float]]]]* @buffer1_1_24_16x16_p, i32 0, i32 0)), !dbg !5877 ; [debug line = 176:2]
  call void @_Z14shuffle_24_r_pPA24_A18_A18_fPA48_S0_([24 x [18 x [18 x float]]]* getelementptr inbounds ([1 x [24 x [18 x [18 x float]]]]* @buffer1_1_24_16x16_p, i32 0, i32 0), [48 x [18 x [18 x float]]]* getelementptr inbounds ([1 x [48 x [18 x [18 x float]]]]* @downsampleunit0_output_p, i32 0, i32 0)), !dbg !5878 ; [debug line = 181:2]
  call void @llvm.dbg.declare(metadata !{i32* %co19}, metadata !5879), !dbg !5881 ; [debug line = 187:10] [debug variable = co]
  store i32 0, i32* %co19, align 4, !dbg !5882    ; [debug line = 187:16]
  br label %397, !dbg !5882                       ; [debug line = 187:16]

; <label>:397                                     ; preds = %441, %396
  %398 = load i32* %co19, align 4, !dbg !5882     ; [#uses=1 type=i32] [debug line = 187:16]
  %399 = icmp slt i32 %398, 24, !dbg !5882        ; [#uses=1 type=i1] [debug line = 187:16]
  br i1 %399, label %400, label %444, !dbg !5882  ; [debug line = 187:16]

; <label>:400                                     ; preds = %397
  call void @llvm.dbg.declare(metadata !{i32* %h20}, metadata !5883), !dbg !5886 ; [debug line = 188:11] [debug variable = h]
  store i32 0, i32* %h20, align 4, !dbg !5887     ; [debug line = 188:14]
  br label %401, !dbg !5887                       ; [debug line = 188:14]

; <label>:401                                     ; preds = %437, %400
  %402 = load i32* %h20, align 4, !dbg !5887      ; [#uses=1 type=i32] [debug line = 188:14]
  %403 = icmp slt i32 %402, 16, !dbg !5887        ; [#uses=1 type=i1] [debug line = 188:14]
  br i1 %403, label %404, label %440, !dbg !5887  ; [debug line = 188:14]

; <label>:404                                     ; preds = %401
  call void @llvm.dbg.declare(metadata !{i32* %w21}, metadata !5888), !dbg !5891 ; [debug line = 189:12] [debug variable = w]
  store i32 0, i32* %w21, align 4, !dbg !5892     ; [debug line = 189:17]
  br label %405, !dbg !5892                       ; [debug line = 189:17]

; <label>:405                                     ; preds = %433, %404
  %406 = load i32* %w21, align 4, !dbg !5892      ; [#uses=1 type=i32] [debug line = 189:17]
  %407 = icmp slt i32 %406, 16, !dbg !5892        ; [#uses=1 type=i1] [debug line = 189:17]
  br i1 %407, label %408, label %436, !dbg !5892  ; [debug line = 189:17]

; <label>:408                                     ; preds = %405
  %409 = load i32* %w21, align 4, !dbg !5893      ; [#uses=1 type=i32] [debug line = 190:5]
  %410 = add nsw i32 %409, 1, !dbg !5893          ; [#uses=1 type=i32] [debug line = 190:5]
  %411 = sext i32 %410 to i64, !dbg !5893         ; [#uses=1 type=i64] [debug line = 190:5]
  %412 = load i32* %h20, align 4, !dbg !5893      ; [#uses=1 type=i32] [debug line = 190:5]
  %413 = add nsw i32 %412, 1, !dbg !5893          ; [#uses=1 type=i32] [debug line = 190:5]
  %414 = sext i32 %413 to i64, !dbg !5893         ; [#uses=1 type=i64] [debug line = 190:5]
  %415 = load i32* %co19, align 4, !dbg !5893     ; [#uses=1 type=i32] [debug line = 190:5]
  %416 = add nsw i32 24, %415, !dbg !5893         ; [#uses=1 type=i32] [debug line = 190:5]
  %417 = sext i32 %416 to i64, !dbg !5893         ; [#uses=1 type=i64] [debug line = 190:5]
  %418 = getelementptr inbounds [48 x [18 x [18 x float]]]* getelementptr inbounds ([1 x [48 x [18 x [18 x float]]]]* @downsampleunit0_output_p, i32 0, i64 0), i32 0, i64 %417, !dbg !5893 ; [#uses=1 type=[18 x [18 x float]]*] [debug line = 190:5]
  %419 = getelementptr inbounds [18 x [18 x float]]* %418, i32 0, i64 %414, !dbg !5893 ; [#uses=1 type=[18 x float]*] [debug line = 190:5]
  %420 = getelementptr inbounds [18 x float]* %419, i32 0, i64 %411, !dbg !5893 ; [#uses=1 type=float*] [debug line = 190:5]
  %421 = load float* %420, align 4, !dbg !5893    ; [#uses=1 type=float] [debug line = 190:5]
  %422 = load i32* %w21, align 4, !dbg !5893      ; [#uses=1 type=i32] [debug line = 190:5]
  %423 = add nsw i32 %422, 1, !dbg !5893          ; [#uses=1 type=i32] [debug line = 190:5]
  %424 = sext i32 %423 to i64, !dbg !5893         ; [#uses=1 type=i64] [debug line = 190:5]
  %425 = load i32* %h20, align 4, !dbg !5893      ; [#uses=1 type=i32] [debug line = 190:5]
  %426 = add nsw i32 %425, 1, !dbg !5893          ; [#uses=1 type=i32] [debug line = 190:5]
  %427 = sext i32 %426 to i64, !dbg !5893         ; [#uses=1 type=i64] [debug line = 190:5]
  %428 = load i32* %co19, align 4, !dbg !5893     ; [#uses=1 type=i32] [debug line = 190:5]
  %429 = sext i32 %428 to i64, !dbg !5893         ; [#uses=1 type=i64] [debug line = 190:5]
  %430 = getelementptr inbounds [24 x [18 x [18 x float]]]* getelementptr inbounds ([1 x [24 x [18 x [18 x float]]]]* @buffer0_1_24_16x16_p, i32 0, i64 0), i32 0, i64 %429, !dbg !5893 ; [#uses=1 type=[18 x [18 x float]]*] [debug line = 190:5]
  %431 = getelementptr inbounds [18 x [18 x float]]* %430, i32 0, i64 %427, !dbg !5893 ; [#uses=1 type=[18 x float]*] [debug line = 190:5]
  %432 = getelementptr inbounds [18 x float]* %431, i32 0, i64 %424, !dbg !5893 ; [#uses=1 type=float*] [debug line = 190:5]
  store float %421, float* %432, align 4, !dbg !5893 ; [debug line = 190:5]
  br label %433, !dbg !5895                       ; [debug line = 192:4]

; <label>:433                                     ; preds = %408
  %434 = load i32* %w21, align 4, !dbg !5896      ; [#uses=1 type=i32] [debug line = 189:23]
  %435 = add nsw i32 %434, 1, !dbg !5896          ; [#uses=1 type=i32] [debug line = 189:23]
  store i32 %435, i32* %w21, align 4, !dbg !5896  ; [debug line = 189:23]
  br label %405, !dbg !5896                       ; [debug line = 189:23]

; <label>:436                                     ; preds = %405
  br label %437, !dbg !5897                       ; [debug line = 193:3]

; <label>:437                                     ; preds = %436
  %438 = load i32* %h20, align 4, !dbg !5898      ; [#uses=1 type=i32] [debug line = 188:20]
  %439 = add nsw i32 %438, 1, !dbg !5898          ; [#uses=1 type=i32] [debug line = 188:20]
  store i32 %439, i32* %h20, align 4, !dbg !5898  ; [debug line = 188:20]
  br label %401, !dbg !5898                       ; [debug line = 188:20]

; <label>:440                                     ; preds = %401
  br label %441, !dbg !5899                       ; [debug line = 194:2]

; <label>:441                                     ; preds = %440
  %442 = load i32* %co19, align 4, !dbg !5900     ; [#uses=1 type=i32] [debug line = 187:24]
  %443 = add nsw i32 %442, 1, !dbg !5900          ; [#uses=1 type=i32] [debug line = 187:24]
  store i32 %443, i32* %co19, align 4, !dbg !5900 ; [debug line = 187:24]
  br label %397, !dbg !5900                       ; [debug line = 187:24]

; <label>:444                                     ; preds = %397
  call void @llvm.dbg.declare(metadata !{i32* %co22}, metadata !5901), !dbg !5903 ; [debug line = 197:10] [debug variable = co]
  store i32 0, i32* %co22, align 4, !dbg !5904    ; [debug line = 197:16]
  br label %445, !dbg !5904                       ; [debug line = 197:16]

; <label>:445                                     ; preds = %476, %444
  %446 = load i32* %co22, align 4, !dbg !5904     ; [#uses=1 type=i32] [debug line = 197:16]
  %447 = icmp slt i32 %446, 24, !dbg !5904        ; [#uses=1 type=i1] [debug line = 197:16]
  br i1 %447, label %448, label %479, !dbg !5904  ; [debug line = 197:16]

; <label>:448                                     ; preds = %445
  call void @llvm.dbg.declare(metadata !{i32* %ci23}, metadata !5905), !dbg !5907 ; [debug line = 198:14] [debug variable = ci]
  store i32 0, i32* %ci23, align 4, !dbg !5908    ; [debug line = 198:20]
  br label %449, !dbg !5908                       ; [debug line = 198:20]

; <label>:449                                     ; preds = %472, %448
  %450 = load i32* %ci23, align 4, !dbg !5908     ; [#uses=1 type=i32] [debug line = 198:20]
  %451 = icmp slt i32 %450, 24, !dbg !5908        ; [#uses=1 type=i1] [debug line = 198:20]
  br i1 %451, label %452, label %475, !dbg !5908  ; [debug line = 198:20]

; <label>:452                                     ; preds = %449
  %453 = load i32* %ci23, align 4, !dbg !5909     ; [#uses=1 type=i32] [debug line = 199:4]
  %454 = sext i32 %453 to i64, !dbg !5909         ; [#uses=1 type=i64] [debug line = 199:4]
  %455 = load i32* %co22, align 4, !dbg !5909     ; [#uses=1 type=i32] [debug line = 199:4]
  %456 = add nsw i32 %455, 72, !dbg !5909         ; [#uses=1 type=i32] [debug line = 199:4]
  %457 = sext i32 %456 to i64, !dbg !5909         ; [#uses=1 type=i64] [debug line = 199:4]
  %458 = load [24 x [1 x [1 x float]]]** %4, align 8, !dbg !5909 ; [#uses=1 type=[24 x [1 x [1 x float]]]*] [debug line = 199:4]
  %459 = getelementptr inbounds [24 x [1 x [1 x float]]]* %458, i64 %457, !dbg !5909 ; [#uses=1 type=[24 x [1 x [1 x float]]]*] [debug line = 199:4]
  %460 = getelementptr inbounds [24 x [1 x [1 x float]]]* %459, i32 0, i64 %454, !dbg !5909 ; [#uses=1 type=[1 x [1 x float]]*] [debug line = 199:4]
  %461 = getelementptr inbounds [1 x [1 x float]]* %460, i32 0, i64 0, !dbg !5909 ; [#uses=1 type=[1 x float]*] [debug line = 199:4]
  %462 = getelementptr inbounds [1 x float]* %461, i32 0, i64 0, !dbg !5909 ; [#uses=1 type=float*] [debug line = 199:4]
  %463 = load float* %462, align 4, !dbg !5909    ; [#uses=1 type=float] [debug line = 199:4]
  %464 = load i32* %ci23, align 4, !dbg !5909     ; [#uses=1 type=i32] [debug line = 199:4]
  %465 = sext i32 %464 to i64, !dbg !5909         ; [#uses=1 type=i64] [debug line = 199:4]
  %466 = load i32* %co22, align 4, !dbg !5909     ; [#uses=1 type=i32] [debug line = 199:4]
  %467 = sext i32 %466 to i64, !dbg !5909         ; [#uses=1 type=i64] [debug line = 199:4]
  %468 = getelementptr inbounds [24 x [24 x [1 x [1 x float]]]]* @weights_24_24_1x1, i32 0, i64 %467, !dbg !5909 ; [#uses=1 type=[24 x [1 x [1 x float]]]*] [debug line = 199:4]
  %469 = getelementptr inbounds [24 x [1 x [1 x float]]]* %468, i32 0, i64 %465, !dbg !5909 ; [#uses=1 type=[1 x [1 x float]]*] [debug line = 199:4]
  %470 = getelementptr inbounds [1 x [1 x float]]* %469, i32 0, i64 0, !dbg !5909 ; [#uses=1 type=[1 x float]*] [debug line = 199:4]
  %471 = getelementptr inbounds [1 x float]* %470, i32 0, i64 0, !dbg !5909 ; [#uses=1 type=float*] [debug line = 199:4]
  store float %463, float* %471, align 4, !dbg !5909 ; [debug line = 199:4]
  br label %472, !dbg !5909                       ; [debug line = 199:4]

; <label>:472                                     ; preds = %452
  %473 = load i32* %ci23, align 4, !dbg !5910     ; [#uses=1 type=i32] [debug line = 198:30]
  %474 = add nsw i32 %473, 1, !dbg !5910          ; [#uses=1 type=i32] [debug line = 198:30]
  store i32 %474, i32* %ci23, align 4, !dbg !5910 ; [debug line = 198:30]
  br label %449, !dbg !5910                       ; [debug line = 198:30]

; <label>:475                                     ; preds = %449
  br label %476, !dbg !5911                       ; [debug line = 199:72]

; <label>:476                                     ; preds = %475
  %477 = load i32* %co22, align 4, !dbg !5912     ; [#uses=1 type=i32] [debug line = 197:27]
  %478 = add nsw i32 %477, 1, !dbg !5912          ; [#uses=1 type=i32] [debug line = 197:27]
  store i32 %478, i32* %co22, align 4, !dbg !5912 ; [debug line = 197:27]
  br label %445, !dbg !5912                       ; [debug line = 197:27]

; <label>:479                                     ; preds = %445
  call void @llvm.dbg.declare(metadata !{i32* %i24}, metadata !5913), !dbg !5915 ; [debug line = 200:10] [debug variable = i]
  store i32 0, i32* %i24, align 4, !dbg !5916     ; [debug line = 200:15]
  br label %480, !dbg !5916                       ; [debug line = 200:15]

; <label>:480                                     ; preds = %493, %479
  %481 = load i32* %i24, align 4, !dbg !5916      ; [#uses=1 type=i32] [debug line = 200:15]
  %482 = icmp slt i32 %481, 24, !dbg !5916        ; [#uses=1 type=i1] [debug line = 200:15]
  br i1 %482, label %483, label %496, !dbg !5916  ; [debug line = 200:15]

; <label>:483                                     ; preds = %480
  %484 = load i32* %i24, align 4, !dbg !5917      ; [#uses=1 type=i32] [debug line = 201:3]
  %485 = add nsw i32 %484, 144, !dbg !5917        ; [#uses=1 type=i32] [debug line = 201:3]
  %486 = sext i32 %485 to i64, !dbg !5917         ; [#uses=1 type=i64] [debug line = 201:3]
  %487 = load float** %7, align 8, !dbg !5917     ; [#uses=1 type=float*] [debug line = 201:3]
  %488 = getelementptr inbounds float* %487, i64 %486, !dbg !5917 ; [#uses=1 type=float*] [debug line = 201:3]
  %489 = load float* %488, align 4, !dbg !5917    ; [#uses=1 type=float] [debug line = 201:3]
  %490 = load i32* %i24, align 4, !dbg !5917      ; [#uses=1 type=i32] [debug line = 201:3]
  %491 = sext i32 %490 to i64, !dbg !5917         ; [#uses=1 type=i64] [debug line = 201:3]
  %492 = getelementptr inbounds [24 x float]* @bias_24, i32 0, i64 %491, !dbg !5917 ; [#uses=1 type=float*] [debug line = 201:3]
  store float %489, float* %492, align 4, !dbg !5917 ; [debug line = 201:3]
  br label %493, !dbg !5917                       ; [debug line = 201:3]

; <label>:493                                     ; preds = %483
  %494 = load i32* %i24, align 4, !dbg !5918      ; [#uses=1 type=i32] [debug line = 200:25]
  %495 = add nsw i32 %494, 1, !dbg !5918          ; [#uses=1 type=i32] [debug line = 200:25]
  store i32 %495, i32* %i24, align 4, !dbg !5918  ; [debug line = 200:25]
  br label %480, !dbg !5918                       ; [debug line = 200:25]

; <label>:496                                     ; preds = %480
  call void @_Z16subconv_1x1_16_pPA24_A18_A18_fPA24_A1_A1_fPfS2_([24 x [18 x [18 x float]]]* getelementptr inbounds ([1 x [24 x [18 x [18 x float]]]]* @buffer0_1_24_16x16_p, i32 0, i32 0), [24 x [1 x [1 x float]]]* getelementptr inbounds ([24 x [24 x [1 x [1 x float]]]]* @weights_24_24_1x1, i32 0, i32 0), float* getelementptr inbounds ([24 x float]* @bias_24, i32 0, i32 0), [24 x [18 x [18 x float]]]* getelementptr inbounds ([1 x [24 x [18 x [18 x float]]]]* @buffer1_1_24_16x16_p, i32 0, i32 0)), !dbg !5919 ; [debug line = 203:2]
  call void @llvm.dbg.declare(metadata !{i32* %co25}, metadata !5920), !dbg !5922 ; [debug line = 207:10] [debug variable = co]
  store i32 0, i32* %co25, align 4, !dbg !5923    ; [debug line = 207:16]
  br label %497, !dbg !5923                       ; [debug line = 207:16]

; <label>:497                                     ; preds = %540, %496
  %498 = load i32* %co25, align 4, !dbg !5923     ; [#uses=1 type=i32] [debug line = 207:16]
  %499 = icmp slt i32 %498, 24, !dbg !5923        ; [#uses=1 type=i1] [debug line = 207:16]
  br i1 %499, label %500, label %543, !dbg !5923  ; [debug line = 207:16]

; <label>:500                                     ; preds = %497
  call void @llvm.dbg.declare(metadata !{i32* %w26}, metadata !5924), !dbg !5926 ; [debug line = 208:14] [debug variable = w]
  store i32 0, i32* %w26, align 4, !dbg !5927     ; [debug line = 208:19]
  br label %501, !dbg !5927                       ; [debug line = 208:19]

; <label>:501                                     ; preds = %536, %500
  %502 = load i32* %w26, align 4, !dbg !5927      ; [#uses=1 type=i32] [debug line = 208:19]
  %503 = icmp slt i32 %502, 3, !dbg !5927         ; [#uses=1 type=i1] [debug line = 208:19]
  br i1 %503, label %504, label %539, !dbg !5927  ; [debug line = 208:19]

; <label>:504                                     ; preds = %501
  call void @llvm.dbg.declare(metadata !{i32* %h27}, metadata !5928), !dbg !5930 ; [debug line = 209:18] [debug variable = h]
  store i32 0, i32* %h27, align 4, !dbg !5931     ; [debug line = 209:23]
  br label %505, !dbg !5931                       ; [debug line = 209:23]

; <label>:505                                     ; preds = %532, %504
  %506 = load i32* %h27, align 4, !dbg !5931      ; [#uses=1 type=i32] [debug line = 209:23]
  %507 = icmp slt i32 %506, 3, !dbg !5931         ; [#uses=1 type=i1] [debug line = 209:23]
  br i1 %507, label %508, label %535, !dbg !5931  ; [debug line = 209:23]

; <label>:508                                     ; preds = %505
  %509 = load i32* %h27, align 4, !dbg !5932      ; [#uses=1 type=i32] [debug line = 210:5]
  %510 = sext i32 %509 to i64, !dbg !5932         ; [#uses=1 type=i64] [debug line = 210:5]
  %511 = load i32* %w26, align 4, !dbg !5932      ; [#uses=1 type=i32] [debug line = 210:5]
  %512 = sext i32 %511 to i64, !dbg !5932         ; [#uses=1 type=i64] [debug line = 210:5]
  %513 = load i32* %co25, align 4, !dbg !5932     ; [#uses=1 type=i32] [debug line = 210:5]
  %514 = add nsw i32 %513, 48, !dbg !5932         ; [#uses=1 type=i32] [debug line = 210:5]
  %515 = sext i32 %514 to i64, !dbg !5932         ; [#uses=1 type=i64] [debug line = 210:5]
  %516 = load [1 x [3 x [3 x float]]]** %3, align 8, !dbg !5932 ; [#uses=1 type=[1 x [3 x [3 x float]]]*] [debug line = 210:5]
  %517 = getelementptr inbounds [1 x [3 x [3 x float]]]* %516, i64 %515, !dbg !5932 ; [#uses=1 type=[1 x [3 x [3 x float]]]*] [debug line = 210:5]
  %518 = getelementptr inbounds [1 x [3 x [3 x float]]]* %517, i32 0, i64 0, !dbg !5932 ; [#uses=1 type=[3 x [3 x float]]*] [debug line = 210:5]
  %519 = getelementptr inbounds [3 x [3 x float]]* %518, i32 0, i64 %512, !dbg !5932 ; [#uses=1 type=[3 x float]*] [debug line = 210:5]
  %520 = getelementptr inbounds [3 x float]* %519, i32 0, i64 %510, !dbg !5932 ; [#uses=1 type=float*] [debug line = 210:5]
  %521 = load float* %520, align 4, !dbg !5932    ; [#uses=1 type=float] [debug line = 210:5]
  %522 = load i32* %h27, align 4, !dbg !5932      ; [#uses=1 type=i32] [debug line = 210:5]
  %523 = sext i32 %522 to i64, !dbg !5932         ; [#uses=1 type=i64] [debug line = 210:5]
  %524 = load i32* %w26, align 4, !dbg !5932      ; [#uses=1 type=i32] [debug line = 210:5]
  %525 = sext i32 %524 to i64, !dbg !5932         ; [#uses=1 type=i64] [debug line = 210:5]
  %526 = load i32* %co25, align 4, !dbg !5932     ; [#uses=1 type=i32] [debug line = 210:5]
  %527 = sext i32 %526 to i64, !dbg !5932         ; [#uses=1 type=i64] [debug line = 210:5]
  %528 = getelementptr inbounds [24 x [1 x [3 x [3 x float]]]]* @weights_24_1_3x3, i32 0, i64 %527, !dbg !5932 ; [#uses=1 type=[1 x [3 x [3 x float]]]*] [debug line = 210:5]
  %529 = getelementptr inbounds [1 x [3 x [3 x float]]]* %528, i32 0, i64 0, !dbg !5932 ; [#uses=1 type=[3 x [3 x float]]*] [debug line = 210:5]
  %530 = getelementptr inbounds [3 x [3 x float]]* %529, i32 0, i64 %525, !dbg !5932 ; [#uses=1 type=[3 x float]*] [debug line = 210:5]
  %531 = getelementptr inbounds [3 x float]* %530, i32 0, i64 %523, !dbg !5932 ; [#uses=1 type=float*] [debug line = 210:5]
  store float %521, float* %531, align 4, !dbg !5932 ; [debug line = 210:5]
  br label %532, !dbg !5932                       ; [debug line = 210:5]

; <label>:532                                     ; preds = %508
  %533 = load i32* %h27, align 4, !dbg !5933      ; [#uses=1 type=i32] [debug line = 209:30]
  %534 = add nsw i32 %533, 1, !dbg !5933          ; [#uses=1 type=i32] [debug line = 209:30]
  store i32 %534, i32* %h27, align 4, !dbg !5933  ; [debug line = 209:30]
  br label %505, !dbg !5933                       ; [debug line = 209:30]

; <label>:535                                     ; preds = %505
  br label %536, !dbg !5934                       ; [debug line = 210:70]

; <label>:536                                     ; preds = %535
  %537 = load i32* %w26, align 4, !dbg !5935      ; [#uses=1 type=i32] [debug line = 208:27]
  %538 = add nsw i32 %537, 1, !dbg !5935          ; [#uses=1 type=i32] [debug line = 208:27]
  store i32 %538, i32* %w26, align 4, !dbg !5935  ; [debug line = 208:27]
  br label %501, !dbg !5935                       ; [debug line = 208:27]

; <label>:539                                     ; preds = %501
  br label %540, !dbg !5936                       ; [debug line = 210:70]

; <label>:540                                     ; preds = %539
  %541 = load i32* %co25, align 4, !dbg !5937     ; [#uses=1 type=i32] [debug line = 207:23]
  %542 = add nsw i32 %541, 1, !dbg !5937          ; [#uses=1 type=i32] [debug line = 207:23]
  store i32 %542, i32* %co25, align 4, !dbg !5937 ; [debug line = 207:23]
  br label %497, !dbg !5937                       ; [debug line = 207:23]

; <label>:543                                     ; preds = %497
  call void @llvm.dbg.declare(metadata !{i32* %i28}, metadata !5938), !dbg !5940 ; [debug line = 211:10] [debug variable = i]
  store i32 0, i32* %i28, align 4, !dbg !5941     ; [debug line = 211:15]
  br label %544, !dbg !5941                       ; [debug line = 211:15]

; <label>:544                                     ; preds = %557, %543
  %545 = load i32* %i28, align 4, !dbg !5941      ; [#uses=1 type=i32] [debug line = 211:15]
  %546 = icmp slt i32 %545, 24, !dbg !5941        ; [#uses=1 type=i1] [debug line = 211:15]
  br i1 %546, label %547, label %560, !dbg !5941  ; [debug line = 211:15]

; <label>:547                                     ; preds = %544
  %548 = load i32* %i28, align 4, !dbg !5942      ; [#uses=1 type=i32] [debug line = 212:3]
  %549 = add nsw i32 %548, 168, !dbg !5942        ; [#uses=1 type=i32] [debug line = 212:3]
  %550 = sext i32 %549 to i64, !dbg !5942         ; [#uses=1 type=i64] [debug line = 212:3]
  %551 = load float** %7, align 8, !dbg !5942     ; [#uses=1 type=float*] [debug line = 212:3]
  %552 = getelementptr inbounds float* %551, i64 %550, !dbg !5942 ; [#uses=1 type=float*] [debug line = 212:3]
  %553 = load float* %552, align 4, !dbg !5942    ; [#uses=1 type=float] [debug line = 212:3]
  %554 = load i32* %i28, align 4, !dbg !5942      ; [#uses=1 type=i32] [debug line = 212:3]
  %555 = sext i32 %554 to i64, !dbg !5942         ; [#uses=1 type=i64] [debug line = 212:3]
  %556 = getelementptr inbounds [24 x float]* @bias_24, i32 0, i64 %555, !dbg !5942 ; [#uses=1 type=float*] [debug line = 212:3]
  store float %553, float* %556, align 4, !dbg !5942 ; [debug line = 212:3]
  br label %557, !dbg !5942                       ; [debug line = 212:3]

; <label>:557                                     ; preds = %547
  %558 = load i32* %i28, align 4, !dbg !5943      ; [#uses=1 type=i32] [debug line = 211:25]
  %559 = add nsw i32 %558, 1, !dbg !5943          ; [#uses=1 type=i32] [debug line = 211:25]
  store i32 %559, i32* %i28, align 4, !dbg !5943  ; [debug line = 211:25]
  br label %544, !dbg !5943                       ; [debug line = 211:25]

; <label>:560                                     ; preds = %544
  call void @_Z24subconv_3x3_16_no_relu_pPA24_A18_A18_fPA1_A3_A3_fPfS2_([24 x [18 x [18 x float]]]* getelementptr inbounds ([1 x [24 x [18 x [18 x float]]]]* @buffer1_1_24_16x16_p, i32 0, i32 0), [1 x [3 x [3 x float]]]* getelementptr inbounds ([24 x [1 x [3 x [3 x float]]]]* @weights_24_1_3x3, i32 0, i32 0), float* getelementptr inbounds ([24 x float]* @bias_24, i32 0, i32 0), [24 x [18 x [18 x float]]]* getelementptr inbounds ([1 x [24 x [18 x [18 x float]]]]* @buffer0_1_24_16x16_p, i32 0, i32 0)), !dbg !5944 ; [debug line = 214:2]
  call void @llvm.dbg.declare(metadata !{i32* %co29}, metadata !5945), !dbg !5947 ; [debug line = 218:10] [debug variable = co]
  store i32 0, i32* %co29, align 4, !dbg !5948    ; [debug line = 218:16]
  br label %561, !dbg !5948                       ; [debug line = 218:16]

; <label>:561                                     ; preds = %592, %560
  %562 = load i32* %co29, align 4, !dbg !5948     ; [#uses=1 type=i32] [debug line = 218:16]
  %563 = icmp slt i32 %562, 24, !dbg !5948        ; [#uses=1 type=i1] [debug line = 218:16]
  br i1 %563, label %564, label %595, !dbg !5948  ; [debug line = 218:16]

; <label>:564                                     ; preds = %561
  call void @llvm.dbg.declare(metadata !{i32* %ci30}, metadata !5949), !dbg !5951 ; [debug line = 219:14] [debug variable = ci]
  store i32 0, i32* %ci30, align 4, !dbg !5952    ; [debug line = 219:20]
  br label %565, !dbg !5952                       ; [debug line = 219:20]

; <label>:565                                     ; preds = %588, %564
  %566 = load i32* %ci30, align 4, !dbg !5952     ; [#uses=1 type=i32] [debug line = 219:20]
  %567 = icmp slt i32 %566, 24, !dbg !5952        ; [#uses=1 type=i1] [debug line = 219:20]
  br i1 %567, label %568, label %591, !dbg !5952  ; [debug line = 219:20]

; <label>:568                                     ; preds = %565
  %569 = load i32* %ci30, align 4, !dbg !5953     ; [#uses=1 type=i32] [debug line = 220:4]
  %570 = sext i32 %569 to i64, !dbg !5953         ; [#uses=1 type=i64] [debug line = 220:4]
  %571 = load i32* %co29, align 4, !dbg !5953     ; [#uses=1 type=i32] [debug line = 220:4]
  %572 = add nsw i32 %571, 96, !dbg !5953         ; [#uses=1 type=i32] [debug line = 220:4]
  %573 = sext i32 %572 to i64, !dbg !5953         ; [#uses=1 type=i64] [debug line = 220:4]
  %574 = load [24 x [1 x [1 x float]]]** %4, align 8, !dbg !5953 ; [#uses=1 type=[24 x [1 x [1 x float]]]*] [debug line = 220:4]
  %575 = getelementptr inbounds [24 x [1 x [1 x float]]]* %574, i64 %573, !dbg !5953 ; [#uses=1 type=[24 x [1 x [1 x float]]]*] [debug line = 220:4]
  %576 = getelementptr inbounds [24 x [1 x [1 x float]]]* %575, i32 0, i64 %570, !dbg !5953 ; [#uses=1 type=[1 x [1 x float]]*] [debug line = 220:4]
  %577 = getelementptr inbounds [1 x [1 x float]]* %576, i32 0, i64 0, !dbg !5953 ; [#uses=1 type=[1 x float]*] [debug line = 220:4]
  %578 = getelementptr inbounds [1 x float]* %577, i32 0, i64 0, !dbg !5953 ; [#uses=1 type=float*] [debug line = 220:4]
  %579 = load float* %578, align 4, !dbg !5953    ; [#uses=1 type=float] [debug line = 220:4]
  %580 = load i32* %ci30, align 4, !dbg !5953     ; [#uses=1 type=i32] [debug line = 220:4]
  %581 = sext i32 %580 to i64, !dbg !5953         ; [#uses=1 type=i64] [debug line = 220:4]
  %582 = load i32* %co29, align 4, !dbg !5953     ; [#uses=1 type=i32] [debug line = 220:4]
  %583 = sext i32 %582 to i64, !dbg !5953         ; [#uses=1 type=i64] [debug line = 220:4]
  %584 = getelementptr inbounds [24 x [24 x [1 x [1 x float]]]]* @weights_24_24_1x1, i32 0, i64 %583, !dbg !5953 ; [#uses=1 type=[24 x [1 x [1 x float]]]*] [debug line = 220:4]
  %585 = getelementptr inbounds [24 x [1 x [1 x float]]]* %584, i32 0, i64 %581, !dbg !5953 ; [#uses=1 type=[1 x [1 x float]]*] [debug line = 220:4]
  %586 = getelementptr inbounds [1 x [1 x float]]* %585, i32 0, i64 0, !dbg !5953 ; [#uses=1 type=[1 x float]*] [debug line = 220:4]
  %587 = getelementptr inbounds [1 x float]* %586, i32 0, i64 0, !dbg !5953 ; [#uses=1 type=float*] [debug line = 220:4]
  store float %579, float* %587, align 4, !dbg !5953 ; [debug line = 220:4]
  br label %588, !dbg !5953                       ; [debug line = 220:4]

; <label>:588                                     ; preds = %568
  %589 = load i32* %ci30, align 4, !dbg !5954     ; [#uses=1 type=i32] [debug line = 219:30]
  %590 = add nsw i32 %589, 1, !dbg !5954          ; [#uses=1 type=i32] [debug line = 219:30]
  store i32 %590, i32* %ci30, align 4, !dbg !5954 ; [debug line = 219:30]
  br label %565, !dbg !5954                       ; [debug line = 219:30]

; <label>:591                                     ; preds = %565
  br label %592, !dbg !5955                       ; [debug line = 220:72]

; <label>:592                                     ; preds = %591
  %593 = load i32* %co29, align 4, !dbg !5956     ; [#uses=1 type=i32] [debug line = 218:27]
  %594 = add nsw i32 %593, 1, !dbg !5956          ; [#uses=1 type=i32] [debug line = 218:27]
  store i32 %594, i32* %co29, align 4, !dbg !5956 ; [debug line = 218:27]
  br label %561, !dbg !5956                       ; [debug line = 218:27]

; <label>:595                                     ; preds = %561
  call void @llvm.dbg.declare(metadata !{i32* %i31}, metadata !5957), !dbg !5959 ; [debug line = 221:10] [debug variable = i]
  store i32 0, i32* %i31, align 4, !dbg !5960     ; [debug line = 221:15]
  br label %596, !dbg !5960                       ; [debug line = 221:15]

; <label>:596                                     ; preds = %609, %595
  %597 = load i32* %i31, align 4, !dbg !5960      ; [#uses=1 type=i32] [debug line = 221:15]
  %598 = icmp slt i32 %597, 24, !dbg !5960        ; [#uses=1 type=i1] [debug line = 221:15]
  br i1 %598, label %599, label %612, !dbg !5960  ; [debug line = 221:15]

; <label>:599                                     ; preds = %596
  %600 = load i32* %i31, align 4, !dbg !5961      ; [#uses=1 type=i32] [debug line = 222:3]
  %601 = add nsw i32 %600, 192, !dbg !5961        ; [#uses=1 type=i32] [debug line = 222:3]
  %602 = sext i32 %601 to i64, !dbg !5961         ; [#uses=1 type=i64] [debug line = 222:3]
  %603 = load float** %7, align 8, !dbg !5961     ; [#uses=1 type=float*] [debug line = 222:3]
  %604 = getelementptr inbounds float* %603, i64 %602, !dbg !5961 ; [#uses=1 type=float*] [debug line = 222:3]
  %605 = load float* %604, align 4, !dbg !5961    ; [#uses=1 type=float] [debug line = 222:3]
  %606 = load i32* %i31, align 4, !dbg !5961      ; [#uses=1 type=i32] [debug line = 222:3]
  %607 = sext i32 %606 to i64, !dbg !5961         ; [#uses=1 type=i64] [debug line = 222:3]
  %608 = getelementptr inbounds [24 x float]* @bias_24, i32 0, i64 %607, !dbg !5961 ; [#uses=1 type=float*] [debug line = 222:3]
  store float %605, float* %608, align 4, !dbg !5961 ; [debug line = 222:3]
  br label %609, !dbg !5961                       ; [debug line = 222:3]

; <label>:609                                     ; preds = %599
  %610 = load i32* %i31, align 4, !dbg !5962      ; [#uses=1 type=i32] [debug line = 221:25]
  %611 = add nsw i32 %610, 1, !dbg !5962          ; [#uses=1 type=i32] [debug line = 221:25]
  store i32 %611, i32* %i31, align 4, !dbg !5962  ; [debug line = 221:25]
  br label %596, !dbg !5962                       ; [debug line = 221:25]

; <label>:612                                     ; preds = %596
  call void @_Z16subconv_1x1_16_pPA24_A18_A18_fPA24_A1_A1_fPfS2_([24 x [18 x [18 x float]]]* getelementptr inbounds ([1 x [24 x [18 x [18 x float]]]]* @buffer0_1_24_16x16_p, i32 0, i32 0), [24 x [1 x [1 x float]]]* getelementptr inbounds ([24 x [24 x [1 x [1 x float]]]]* @weights_24_24_1x1, i32 0, i32 0), float* getelementptr inbounds ([24 x float]* @bias_24, i32 0, i32 0), [24 x [18 x [18 x float]]]* getelementptr inbounds ([1 x [24 x [18 x [18 x float]]]]* @buffer1_1_24_16x16_p, i32 0, i32 0)), !dbg !5963 ; [debug line = 224:2]
  call void @llvm.dbg.declare(metadata !{i32* %co32}, metadata !5964), !dbg !5966 ; [debug line = 230:10] [debug variable = co]
  store i32 0, i32* %co32, align 4, !dbg !5967    ; [debug line = 230:16]
  br label %613, !dbg !5967                       ; [debug line = 230:16]

; <label>:613                                     ; preds = %656, %612
  %614 = load i32* %co32, align 4, !dbg !5967     ; [#uses=1 type=i32] [debug line = 230:16]
  %615 = icmp slt i32 %614, 24, !dbg !5967        ; [#uses=1 type=i1] [debug line = 230:16]
  br i1 %615, label %616, label %659, !dbg !5967  ; [debug line = 230:16]

; <label>:616                                     ; preds = %613
  call void @llvm.dbg.declare(metadata !{i32* %h33}, metadata !5968), !dbg !5971 ; [debug line = 231:11] [debug variable = h]
  store i32 0, i32* %h33, align 4, !dbg !5972     ; [debug line = 231:14]
  br label %617, !dbg !5972                       ; [debug line = 231:14]

; <label>:617                                     ; preds = %652, %616
  %618 = load i32* %h33, align 4, !dbg !5972      ; [#uses=1 type=i32] [debug line = 231:14]
  %619 = icmp slt i32 %618, 16, !dbg !5972        ; [#uses=1 type=i1] [debug line = 231:14]
  br i1 %619, label %620, label %655, !dbg !5972  ; [debug line = 231:14]

; <label>:620                                     ; preds = %617
  call void @llvm.dbg.declare(metadata !{i32* %w34}, metadata !5973), !dbg !5976 ; [debug line = 232:12] [debug variable = w]
  store i32 0, i32* %w34, align 4, !dbg !5977     ; [debug line = 232:17]
  br label %621, !dbg !5977                       ; [debug line = 232:17]

; <label>:621                                     ; preds = %648, %620
  %622 = load i32* %w34, align 4, !dbg !5977      ; [#uses=1 type=i32] [debug line = 232:17]
  %623 = icmp slt i32 %622, 16, !dbg !5977        ; [#uses=1 type=i1] [debug line = 232:17]
  br i1 %623, label %624, label %651, !dbg !5977  ; [debug line = 232:17]

; <label>:624                                     ; preds = %621
  %625 = load i32* %w34, align 4, !dbg !5978      ; [#uses=1 type=i32] [debug line = 234:5]
  %626 = add nsw i32 %625, 1, !dbg !5978          ; [#uses=1 type=i32] [debug line = 234:5]
  %627 = sext i32 %626 to i64, !dbg !5978         ; [#uses=1 type=i64] [debug line = 234:5]
  %628 = load i32* %h33, align 4, !dbg !5978      ; [#uses=1 type=i32] [debug line = 234:5]
  %629 = add nsw i32 %628, 1, !dbg !5978          ; [#uses=1 type=i32] [debug line = 234:5]
  %630 = sext i32 %629 to i64, !dbg !5978         ; [#uses=1 type=i64] [debug line = 234:5]
  %631 = load i32* %co32, align 4, !dbg !5978     ; [#uses=1 type=i32] [debug line = 234:5]
  %632 = sext i32 %631 to i64, !dbg !5978         ; [#uses=1 type=i64] [debug line = 234:5]
  %633 = getelementptr inbounds [48 x [18 x [18 x float]]]* getelementptr inbounds ([1 x [48 x [18 x [18 x float]]]]* @downsampleunit0_output_p, i32 0, i64 0), i32 0, i64 %632, !dbg !5978 ; [#uses=1 type=[18 x [18 x float]]*] [debug line = 234:5]
  %634 = getelementptr inbounds [18 x [18 x float]]* %633, i32 0, i64 %630, !dbg !5978 ; [#uses=1 type=[18 x float]*] [debug line = 234:5]
  %635 = getelementptr inbounds [18 x float]* %634, i32 0, i64 %627, !dbg !5978 ; [#uses=1 type=float*] [debug line = 234:5]
  %636 = load float* %635, align 4, !dbg !5978    ; [#uses=1 type=float] [debug line = 234:5]
  %637 = load i32* %w34, align 4, !dbg !5978      ; [#uses=1 type=i32] [debug line = 234:5]
  %638 = add nsw i32 %637, 1, !dbg !5978          ; [#uses=1 type=i32] [debug line = 234:5]
  %639 = sext i32 %638 to i64, !dbg !5978         ; [#uses=1 type=i64] [debug line = 234:5]
  %640 = load i32* %h33, align 4, !dbg !5978      ; [#uses=1 type=i32] [debug line = 234:5]
  %641 = add nsw i32 %640, 1, !dbg !5978          ; [#uses=1 type=i32] [debug line = 234:5]
  %642 = sext i32 %641 to i64, !dbg !5978         ; [#uses=1 type=i64] [debug line = 234:5]
  %643 = load i32* %co32, align 4, !dbg !5978     ; [#uses=1 type=i32] [debug line = 234:5]
  %644 = sext i32 %643 to i64, !dbg !5978         ; [#uses=1 type=i64] [debug line = 234:5]
  %645 = getelementptr inbounds [24 x [18 x [18 x float]]]* getelementptr inbounds ([1 x [24 x [18 x [18 x float]]]]* @buffer0_1_24_16x16_p, i32 0, i64 0), i32 0, i64 %644, !dbg !5978 ; [#uses=1 type=[18 x [18 x float]]*] [debug line = 234:5]
  %646 = getelementptr inbounds [18 x [18 x float]]* %645, i32 0, i64 %642, !dbg !5978 ; [#uses=1 type=[18 x float]*] [debug line = 234:5]
  %647 = getelementptr inbounds [18 x float]* %646, i32 0, i64 %639, !dbg !5978 ; [#uses=1 type=float*] [debug line = 234:5]
  store float %636, float* %647, align 4, !dbg !5978 ; [debug line = 234:5]
  br label %648, !dbg !5980                       ; [debug line = 235:4]

; <label>:648                                     ; preds = %624
  %649 = load i32* %w34, align 4, !dbg !5981      ; [#uses=1 type=i32] [debug line = 232:23]
  %650 = add nsw i32 %649, 1, !dbg !5981          ; [#uses=1 type=i32] [debug line = 232:23]
  store i32 %650, i32* %w34, align 4, !dbg !5981  ; [debug line = 232:23]
  br label %621, !dbg !5981                       ; [debug line = 232:23]

; <label>:651                                     ; preds = %621
  br label %652, !dbg !5982                       ; [debug line = 236:3]

; <label>:652                                     ; preds = %651
  %653 = load i32* %h33, align 4, !dbg !5983      ; [#uses=1 type=i32] [debug line = 231:20]
  %654 = add nsw i32 %653, 1, !dbg !5983          ; [#uses=1 type=i32] [debug line = 231:20]
  store i32 %654, i32* %h33, align 4, !dbg !5983  ; [debug line = 231:20]
  br label %617, !dbg !5983                       ; [debug line = 231:20]

; <label>:655                                     ; preds = %617
  br label %656, !dbg !5984                       ; [debug line = 237:2]

; <label>:656                                     ; preds = %655
  %657 = load i32* %co32, align 4, !dbg !5985     ; [#uses=1 type=i32] [debug line = 230:24]
  %658 = add nsw i32 %657, 1, !dbg !5985          ; [#uses=1 type=i32] [debug line = 230:24]
  store i32 %658, i32* %co32, align 4, !dbg !5985 ; [debug line = 230:24]
  br label %613, !dbg !5985                       ; [debug line = 230:24]

; <label>:659                                     ; preds = %613
  call void @_Z12shuffle_24_pPA24_A18_A18_fS2_PA48_S0_([24 x [18 x [18 x float]]]* getelementptr inbounds ([1 x [24 x [18 x [18 x float]]]]* @buffer0_1_24_16x16_p, i32 0, i32 0), [24 x [18 x [18 x float]]]* getelementptr inbounds ([1 x [24 x [18 x [18 x float]]]]* @buffer1_1_24_16x16_p, i32 0, i32 0), [48 x [18 x [18 x float]]]* getelementptr inbounds ([1 x [48 x [18 x [18 x float]]]]* @shuffleunit0_0_output_p, i32 0, i32 0)), !dbg !5986 ; [debug line = 239:2]
  call void @llvm.dbg.declare(metadata !{i32* %co35}, metadata !5987), !dbg !5989 ; [debug line = 243:10] [debug variable = co]
  store i32 0, i32* %co35, align 4, !dbg !5990    ; [debug line = 243:16]
  br label %660, !dbg !5990                       ; [debug line = 243:16]

; <label>:660                                     ; preds = %704, %659
  %661 = load i32* %co35, align 4, !dbg !5990     ; [#uses=1 type=i32] [debug line = 243:16]
  %662 = icmp slt i32 %661, 24, !dbg !5990        ; [#uses=1 type=i1] [debug line = 243:16]
  br i1 %662, label %663, label %707, !dbg !5990  ; [debug line = 243:16]

; <label>:663                                     ; preds = %660
  call void @llvm.dbg.declare(metadata !{i32* %h36}, metadata !5991), !dbg !5994 ; [debug line = 244:11] [debug variable = h]
  store i32 0, i32* %h36, align 4, !dbg !5995     ; [debug line = 244:14]
  br label %664, !dbg !5995                       ; [debug line = 244:14]

; <label>:664                                     ; preds = %700, %663
  %665 = load i32* %h36, align 4, !dbg !5995      ; [#uses=1 type=i32] [debug line = 244:14]
  %666 = icmp slt i32 %665, 16, !dbg !5995        ; [#uses=1 type=i1] [debug line = 244:14]
  br i1 %666, label %667, label %703, !dbg !5995  ; [debug line = 244:14]

; <label>:667                                     ; preds = %664
  call void @llvm.dbg.declare(metadata !{i32* %w37}, metadata !5996), !dbg !5999 ; [debug line = 245:12] [debug variable = w]
  store i32 0, i32* %w37, align 4, !dbg !6000     ; [debug line = 245:17]
  br label %668, !dbg !6000                       ; [debug line = 245:17]

; <label>:668                                     ; preds = %696, %667
  %669 = load i32* %w37, align 4, !dbg !6000      ; [#uses=1 type=i32] [debug line = 245:17]
  %670 = icmp slt i32 %669, 16, !dbg !6000        ; [#uses=1 type=i1] [debug line = 245:17]
  br i1 %670, label %671, label %699, !dbg !6000  ; [debug line = 245:17]

; <label>:671                                     ; preds = %668
  %672 = load i32* %w37, align 4, !dbg !6001      ; [#uses=1 type=i32] [debug line = 246:5]
  %673 = add nsw i32 %672, 1, !dbg !6001          ; [#uses=1 type=i32] [debug line = 246:5]
  %674 = sext i32 %673 to i64, !dbg !6001         ; [#uses=1 type=i64] [debug line = 246:5]
  %675 = load i32* %h36, align 4, !dbg !6001      ; [#uses=1 type=i32] [debug line = 246:5]
  %676 = add nsw i32 %675, 1, !dbg !6001          ; [#uses=1 type=i32] [debug line = 246:5]
  %677 = sext i32 %676 to i64, !dbg !6001         ; [#uses=1 type=i64] [debug line = 246:5]
  %678 = load i32* %co35, align 4, !dbg !6001     ; [#uses=1 type=i32] [debug line = 246:5]
  %679 = add nsw i32 24, %678, !dbg !6001         ; [#uses=1 type=i32] [debug line = 246:5]
  %680 = sext i32 %679 to i64, !dbg !6001         ; [#uses=1 type=i64] [debug line = 246:5]
  %681 = getelementptr inbounds [48 x [18 x [18 x float]]]* getelementptr inbounds ([1 x [48 x [18 x [18 x float]]]]* @shuffleunit0_0_output_p, i32 0, i64 0), i32 0, i64 %680, !dbg !6001 ; [#uses=1 type=[18 x [18 x float]]*] [debug line = 246:5]
  %682 = getelementptr inbounds [18 x [18 x float]]* %681, i32 0, i64 %677, !dbg !6001 ; [#uses=1 type=[18 x float]*] [debug line = 246:5]
  %683 = getelementptr inbounds [18 x float]* %682, i32 0, i64 %674, !dbg !6001 ; [#uses=1 type=float*] [debug line = 246:5]
  %684 = load float* %683, align 4, !dbg !6001    ; [#uses=1 type=float] [debug line = 246:5]
  %685 = load i32* %w37, align 4, !dbg !6001      ; [#uses=1 type=i32] [debug line = 246:5]
  %686 = add nsw i32 %685, 1, !dbg !6001          ; [#uses=1 type=i32] [debug line = 246:5]
  %687 = sext i32 %686 to i64, !dbg !6001         ; [#uses=1 type=i64] [debug line = 246:5]
  %688 = load i32* %h36, align 4, !dbg !6001      ; [#uses=1 type=i32] [debug line = 246:5]
  %689 = add nsw i32 %688, 1, !dbg !6001          ; [#uses=1 type=i32] [debug line = 246:5]
  %690 = sext i32 %689 to i64, !dbg !6001         ; [#uses=1 type=i64] [debug line = 246:5]
  %691 = load i32* %co35, align 4, !dbg !6001     ; [#uses=1 type=i32] [debug line = 246:5]
  %692 = sext i32 %691 to i64, !dbg !6001         ; [#uses=1 type=i64] [debug line = 246:5]
  %693 = getelementptr inbounds [24 x [18 x [18 x float]]]* getelementptr inbounds ([1 x [24 x [18 x [18 x float]]]]* @buffer0_1_24_16x16_p, i32 0, i64 0), i32 0, i64 %692, !dbg !6001 ; [#uses=1 type=[18 x [18 x float]]*] [debug line = 246:5]
  %694 = getelementptr inbounds [18 x [18 x float]]* %693, i32 0, i64 %690, !dbg !6001 ; [#uses=1 type=[18 x float]*] [debug line = 246:5]
  %695 = getelementptr inbounds [18 x float]* %694, i32 0, i64 %687, !dbg !6001 ; [#uses=1 type=float*] [debug line = 246:5]
  store float %684, float* %695, align 4, !dbg !6001 ; [debug line = 246:5]
  br label %696, !dbg !6003                       ; [debug line = 248:4]

; <label>:696                                     ; preds = %671
  %697 = load i32* %w37, align 4, !dbg !6004      ; [#uses=1 type=i32] [debug line = 245:23]
  %698 = add nsw i32 %697, 1, !dbg !6004          ; [#uses=1 type=i32] [debug line = 245:23]
  store i32 %698, i32* %w37, align 4, !dbg !6004  ; [debug line = 245:23]
  br label %668, !dbg !6004                       ; [debug line = 245:23]

; <label>:699                                     ; preds = %668
  br label %700, !dbg !6005                       ; [debug line = 249:3]

; <label>:700                                     ; preds = %699
  %701 = load i32* %h36, align 4, !dbg !6006      ; [#uses=1 type=i32] [debug line = 244:20]
  %702 = add nsw i32 %701, 1, !dbg !6006          ; [#uses=1 type=i32] [debug line = 244:20]
  store i32 %702, i32* %h36, align 4, !dbg !6006  ; [debug line = 244:20]
  br label %664, !dbg !6006                       ; [debug line = 244:20]

; <label>:703                                     ; preds = %664
  br label %704, !dbg !6007                       ; [debug line = 250:2]

; <label>:704                                     ; preds = %703
  %705 = load i32* %co35, align 4, !dbg !6008     ; [#uses=1 type=i32] [debug line = 243:24]
  %706 = add nsw i32 %705, 1, !dbg !6008          ; [#uses=1 type=i32] [debug line = 243:24]
  store i32 %706, i32* %co35, align 4, !dbg !6008 ; [debug line = 243:24]
  br label %660, !dbg !6008                       ; [debug line = 243:24]

; <label>:707                                     ; preds = %660
  call void @llvm.dbg.declare(metadata !{i32* %co38}, metadata !6009), !dbg !6011 ; [debug line = 252:10] [debug variable = co]
  store i32 0, i32* %co38, align 4, !dbg !6012    ; [debug line = 252:16]
  br label %708, !dbg !6012                       ; [debug line = 252:16]

; <label>:708                                     ; preds = %739, %707
  %709 = load i32* %co38, align 4, !dbg !6012     ; [#uses=1 type=i32] [debug line = 252:16]
  %710 = icmp slt i32 %709, 24, !dbg !6012        ; [#uses=1 type=i1] [debug line = 252:16]
  br i1 %710, label %711, label %742, !dbg !6012  ; [debug line = 252:16]

; <label>:711                                     ; preds = %708
  call void @llvm.dbg.declare(metadata !{i32* %ci39}, metadata !6013), !dbg !6015 ; [debug line = 253:14] [debug variable = ci]
  store i32 0, i32* %ci39, align 4, !dbg !6016    ; [debug line = 253:20]
  br label %712, !dbg !6016                       ; [debug line = 253:20]

; <label>:712                                     ; preds = %735, %711
  %713 = load i32* %ci39, align 4, !dbg !6016     ; [#uses=1 type=i32] [debug line = 253:20]
  %714 = icmp slt i32 %713, 24, !dbg !6016        ; [#uses=1 type=i1] [debug line = 253:20]
  br i1 %714, label %715, label %738, !dbg !6016  ; [debug line = 253:20]

; <label>:715                                     ; preds = %712
  %716 = load i32* %ci39, align 4, !dbg !6017     ; [#uses=1 type=i32] [debug line = 254:4]
  %717 = sext i32 %716 to i64, !dbg !6017         ; [#uses=1 type=i64] [debug line = 254:4]
  %718 = load i32* %co38, align 4, !dbg !6017     ; [#uses=1 type=i32] [debug line = 254:4]
  %719 = add nsw i32 %718, 120, !dbg !6017        ; [#uses=1 type=i32] [debug line = 254:4]
  %720 = sext i32 %719 to i64, !dbg !6017         ; [#uses=1 type=i64] [debug line = 254:4]
  %721 = load [24 x [1 x [1 x float]]]** %4, align 8, !dbg !6017 ; [#uses=1 type=[24 x [1 x [1 x float]]]*] [debug line = 254:4]
  %722 = getelementptr inbounds [24 x [1 x [1 x float]]]* %721, i64 %720, !dbg !6017 ; [#uses=1 type=[24 x [1 x [1 x float]]]*] [debug line = 254:4]
  %723 = getelementptr inbounds [24 x [1 x [1 x float]]]* %722, i32 0, i64 %717, !dbg !6017 ; [#uses=1 type=[1 x [1 x float]]*] [debug line = 254:4]
  %724 = getelementptr inbounds [1 x [1 x float]]* %723, i32 0, i64 0, !dbg !6017 ; [#uses=1 type=[1 x float]*] [debug line = 254:4]
  %725 = getelementptr inbounds [1 x float]* %724, i32 0, i64 0, !dbg !6017 ; [#uses=1 type=float*] [debug line = 254:4]
  %726 = load float* %725, align 4, !dbg !6017    ; [#uses=1 type=float] [debug line = 254:4]
  %727 = load i32* %ci39, align 4, !dbg !6017     ; [#uses=1 type=i32] [debug line = 254:4]
  %728 = sext i32 %727 to i64, !dbg !6017         ; [#uses=1 type=i64] [debug line = 254:4]
  %729 = load i32* %co38, align 4, !dbg !6017     ; [#uses=1 type=i32] [debug line = 254:4]
  %730 = sext i32 %729 to i64, !dbg !6017         ; [#uses=1 type=i64] [debug line = 254:4]
  %731 = getelementptr inbounds [24 x [24 x [1 x [1 x float]]]]* @weights_24_24_1x1, i32 0, i64 %730, !dbg !6017 ; [#uses=1 type=[24 x [1 x [1 x float]]]*] [debug line = 254:4]
  %732 = getelementptr inbounds [24 x [1 x [1 x float]]]* %731, i32 0, i64 %728, !dbg !6017 ; [#uses=1 type=[1 x [1 x float]]*] [debug line = 254:4]
  %733 = getelementptr inbounds [1 x [1 x float]]* %732, i32 0, i64 0, !dbg !6017 ; [#uses=1 type=[1 x float]*] [debug line = 254:4]
  %734 = getelementptr inbounds [1 x float]* %733, i32 0, i64 0, !dbg !6017 ; [#uses=1 type=float*] [debug line = 254:4]
  store float %726, float* %734, align 4, !dbg !6017 ; [debug line = 254:4]
  br label %735, !dbg !6017                       ; [debug line = 254:4]

; <label>:735                                     ; preds = %715
  %736 = load i32* %ci39, align 4, !dbg !6018     ; [#uses=1 type=i32] [debug line = 253:30]
  %737 = add nsw i32 %736, 1, !dbg !6018          ; [#uses=1 type=i32] [debug line = 253:30]
  store i32 %737, i32* %ci39, align 4, !dbg !6018 ; [debug line = 253:30]
  br label %712, !dbg !6018                       ; [debug line = 253:30]

; <label>:738                                     ; preds = %712
  br label %739, !dbg !6019                       ; [debug line = 254:72]

; <label>:739                                     ; preds = %738
  %740 = load i32* %co38, align 4, !dbg !6020     ; [#uses=1 type=i32] [debug line = 252:27]
  %741 = add nsw i32 %740, 1, !dbg !6020          ; [#uses=1 type=i32] [debug line = 252:27]
  store i32 %741, i32* %co38, align 4, !dbg !6020 ; [debug line = 252:27]
  br label %708, !dbg !6020                       ; [debug line = 252:27]

; <label>:742                                     ; preds = %708
  call void @llvm.dbg.declare(metadata !{i32* %i40}, metadata !6021), !dbg !6023 ; [debug line = 255:10] [debug variable = i]
  store i32 0, i32* %i40, align 4, !dbg !6024     ; [debug line = 255:15]
  br label %743, !dbg !6024                       ; [debug line = 255:15]

; <label>:743                                     ; preds = %756, %742
  %744 = load i32* %i40, align 4, !dbg !6024      ; [#uses=1 type=i32] [debug line = 255:15]
  %745 = icmp slt i32 %744, 24, !dbg !6024        ; [#uses=1 type=i1] [debug line = 255:15]
  br i1 %745, label %746, label %759, !dbg !6024  ; [debug line = 255:15]

; <label>:746                                     ; preds = %743
  %747 = load i32* %i40, align 4, !dbg !6025      ; [#uses=1 type=i32] [debug line = 256:3]
  %748 = add nsw i32 %747, 216, !dbg !6025        ; [#uses=1 type=i32] [debug line = 256:3]
  %749 = sext i32 %748 to i64, !dbg !6025         ; [#uses=1 type=i64] [debug line = 256:3]
  %750 = load float** %7, align 8, !dbg !6025     ; [#uses=1 type=float*] [debug line = 256:3]
  %751 = getelementptr inbounds float* %750, i64 %749, !dbg !6025 ; [#uses=1 type=float*] [debug line = 256:3]
  %752 = load float* %751, align 4, !dbg !6025    ; [#uses=1 type=float] [debug line = 256:3]
  %753 = load i32* %i40, align 4, !dbg !6025      ; [#uses=1 type=i32] [debug line = 256:3]
  %754 = sext i32 %753 to i64, !dbg !6025         ; [#uses=1 type=i64] [debug line = 256:3]
  %755 = getelementptr inbounds [24 x float]* @bias_24, i32 0, i64 %754, !dbg !6025 ; [#uses=1 type=float*] [debug line = 256:3]
  store float %752, float* %755, align 4, !dbg !6025 ; [debug line = 256:3]
  br label %756, !dbg !6025                       ; [debug line = 256:3]

; <label>:756                                     ; preds = %746
  %757 = load i32* %i40, align 4, !dbg !6026      ; [#uses=1 type=i32] [debug line = 255:25]
  %758 = add nsw i32 %757, 1, !dbg !6026          ; [#uses=1 type=i32] [debug line = 255:25]
  store i32 %758, i32* %i40, align 4, !dbg !6026  ; [debug line = 255:25]
  br label %743, !dbg !6026                       ; [debug line = 255:25]

; <label>:759                                     ; preds = %743
  call void @_Z16subconv_1x1_16_pPA24_A18_A18_fPA24_A1_A1_fPfS2_([24 x [18 x [18 x float]]]* getelementptr inbounds ([1 x [24 x [18 x [18 x float]]]]* @buffer0_1_24_16x16_p, i32 0, i32 0), [24 x [1 x [1 x float]]]* getelementptr inbounds ([24 x [24 x [1 x [1 x float]]]]* @weights_24_24_1x1, i32 0, i32 0), float* getelementptr inbounds ([24 x float]* @bias_24, i32 0, i32 0), [24 x [18 x [18 x float]]]* getelementptr inbounds ([1 x [24 x [18 x [18 x float]]]]* @buffer1_1_24_16x16_p, i32 0, i32 0)), !dbg !6027 ; [debug line = 259:2]
  call void @llvm.dbg.declare(metadata !{i32* %co41}, metadata !6028), !dbg !6030 ; [debug line = 262:10] [debug variable = co]
  store i32 0, i32* %co41, align 4, !dbg !6031    ; [debug line = 262:16]
  br label %760, !dbg !6031                       ; [debug line = 262:16]

; <label>:760                                     ; preds = %803, %759
  %761 = load i32* %co41, align 4, !dbg !6031     ; [#uses=1 type=i32] [debug line = 262:16]
  %762 = icmp slt i32 %761, 24, !dbg !6031        ; [#uses=1 type=i1] [debug line = 262:16]
  br i1 %762, label %763, label %806, !dbg !6031  ; [debug line = 262:16]

; <label>:763                                     ; preds = %760
  call void @llvm.dbg.declare(metadata !{i32* %w42}, metadata !6032), !dbg !6034 ; [debug line = 263:14] [debug variable = w]
  store i32 0, i32* %w42, align 4, !dbg !6035     ; [debug line = 263:19]
  br label %764, !dbg !6035                       ; [debug line = 263:19]

; <label>:764                                     ; preds = %799, %763
  %765 = load i32* %w42, align 4, !dbg !6035      ; [#uses=1 type=i32] [debug line = 263:19]
  %766 = icmp slt i32 %765, 3, !dbg !6035         ; [#uses=1 type=i1] [debug line = 263:19]
  br i1 %766, label %767, label %802, !dbg !6035  ; [debug line = 263:19]

; <label>:767                                     ; preds = %764
  call void @llvm.dbg.declare(metadata !{i32* %h43}, metadata !6036), !dbg !6038 ; [debug line = 264:18] [debug variable = h]
  store i32 0, i32* %h43, align 4, !dbg !6039     ; [debug line = 264:23]
  br label %768, !dbg !6039                       ; [debug line = 264:23]

; <label>:768                                     ; preds = %795, %767
  %769 = load i32* %h43, align 4, !dbg !6039      ; [#uses=1 type=i32] [debug line = 264:23]
  %770 = icmp slt i32 %769, 3, !dbg !6039         ; [#uses=1 type=i1] [debug line = 264:23]
  br i1 %770, label %771, label %798, !dbg !6039  ; [debug line = 264:23]

; <label>:771                                     ; preds = %768
  %772 = load i32* %h43, align 4, !dbg !6040      ; [#uses=1 type=i32] [debug line = 265:5]
  %773 = sext i32 %772 to i64, !dbg !6040         ; [#uses=1 type=i64] [debug line = 265:5]
  %774 = load i32* %w42, align 4, !dbg !6040      ; [#uses=1 type=i32] [debug line = 265:5]
  %775 = sext i32 %774 to i64, !dbg !6040         ; [#uses=1 type=i64] [debug line = 265:5]
  %776 = load i32* %co41, align 4, !dbg !6040     ; [#uses=1 type=i32] [debug line = 265:5]
  %777 = add nsw i32 %776, 72, !dbg !6040         ; [#uses=1 type=i32] [debug line = 265:5]
  %778 = sext i32 %777 to i64, !dbg !6040         ; [#uses=1 type=i64] [debug line = 265:5]
  %779 = load [1 x [3 x [3 x float]]]** %3, align 8, !dbg !6040 ; [#uses=1 type=[1 x [3 x [3 x float]]]*] [debug line = 265:5]
  %780 = getelementptr inbounds [1 x [3 x [3 x float]]]* %779, i64 %778, !dbg !6040 ; [#uses=1 type=[1 x [3 x [3 x float]]]*] [debug line = 265:5]
  %781 = getelementptr inbounds [1 x [3 x [3 x float]]]* %780, i32 0, i64 0, !dbg !6040 ; [#uses=1 type=[3 x [3 x float]]*] [debug line = 265:5]
  %782 = getelementptr inbounds [3 x [3 x float]]* %781, i32 0, i64 %775, !dbg !6040 ; [#uses=1 type=[3 x float]*] [debug line = 265:5]
  %783 = getelementptr inbounds [3 x float]* %782, i32 0, i64 %773, !dbg !6040 ; [#uses=1 type=float*] [debug line = 265:5]
  %784 = load float* %783, align 4, !dbg !6040    ; [#uses=1 type=float] [debug line = 265:5]
  %785 = load i32* %h43, align 4, !dbg !6040      ; [#uses=1 type=i32] [debug line = 265:5]
  %786 = sext i32 %785 to i64, !dbg !6040         ; [#uses=1 type=i64] [debug line = 265:5]
  %787 = load i32* %w42, align 4, !dbg !6040      ; [#uses=1 type=i32] [debug line = 265:5]
  %788 = sext i32 %787 to i64, !dbg !6040         ; [#uses=1 type=i64] [debug line = 265:5]
  %789 = load i32* %co41, align 4, !dbg !6040     ; [#uses=1 type=i32] [debug line = 265:5]
  %790 = sext i32 %789 to i64, !dbg !6040         ; [#uses=1 type=i64] [debug line = 265:5]
  %791 = getelementptr inbounds [24 x [1 x [3 x [3 x float]]]]* @weights_24_1_3x3, i32 0, i64 %790, !dbg !6040 ; [#uses=1 type=[1 x [3 x [3 x float]]]*] [debug line = 265:5]
  %792 = getelementptr inbounds [1 x [3 x [3 x float]]]* %791, i32 0, i64 0, !dbg !6040 ; [#uses=1 type=[3 x [3 x float]]*] [debug line = 265:5]
  %793 = getelementptr inbounds [3 x [3 x float]]* %792, i32 0, i64 %788, !dbg !6040 ; [#uses=1 type=[3 x float]*] [debug line = 265:5]
  %794 = getelementptr inbounds [3 x float]* %793, i32 0, i64 %786, !dbg !6040 ; [#uses=1 type=float*] [debug line = 265:5]
  store float %784, float* %794, align 4, !dbg !6040 ; [debug line = 265:5]
  br label %795, !dbg !6040                       ; [debug line = 265:5]

; <label>:795                                     ; preds = %771
  %796 = load i32* %h43, align 4, !dbg !6041      ; [#uses=1 type=i32] [debug line = 264:30]
  %797 = add nsw i32 %796, 1, !dbg !6041          ; [#uses=1 type=i32] [debug line = 264:30]
  store i32 %797, i32* %h43, align 4, !dbg !6041  ; [debug line = 264:30]
  br label %768, !dbg !6041                       ; [debug line = 264:30]

; <label>:798                                     ; preds = %768
  br label %799, !dbg !6042                       ; [debug line = 265:70]

; <label>:799                                     ; preds = %798
  %800 = load i32* %w42, align 4, !dbg !6043      ; [#uses=1 type=i32] [debug line = 263:27]
  %801 = add nsw i32 %800, 1, !dbg !6043          ; [#uses=1 type=i32] [debug line = 263:27]
  store i32 %801, i32* %w42, align 4, !dbg !6043  ; [debug line = 263:27]
  br label %764, !dbg !6043                       ; [debug line = 263:27]

; <label>:802                                     ; preds = %764
  br label %803, !dbg !6044                       ; [debug line = 265:70]

; <label>:803                                     ; preds = %802
  %804 = load i32* %co41, align 4, !dbg !6045     ; [#uses=1 type=i32] [debug line = 262:23]
  %805 = add nsw i32 %804, 1, !dbg !6045          ; [#uses=1 type=i32] [debug line = 262:23]
  store i32 %805, i32* %co41, align 4, !dbg !6045 ; [debug line = 262:23]
  br label %760, !dbg !6045                       ; [debug line = 262:23]

; <label>:806                                     ; preds = %760
  call void @llvm.dbg.declare(metadata !{i32* %i44}, metadata !6046), !dbg !6048 ; [debug line = 266:10] [debug variable = i]
  store i32 0, i32* %i44, align 4, !dbg !6049     ; [debug line = 266:15]
  br label %807, !dbg !6049                       ; [debug line = 266:15]

; <label>:807                                     ; preds = %820, %806
  %808 = load i32* %i44, align 4, !dbg !6049      ; [#uses=1 type=i32] [debug line = 266:15]
  %809 = icmp slt i32 %808, 24, !dbg !6049        ; [#uses=1 type=i1] [debug line = 266:15]
  br i1 %809, label %810, label %823, !dbg !6049  ; [debug line = 266:15]

; <label>:810                                     ; preds = %807
  %811 = load i32* %i44, align 4, !dbg !6050      ; [#uses=1 type=i32] [debug line = 267:3]
  %812 = add nsw i32 %811, 240, !dbg !6050        ; [#uses=1 type=i32] [debug line = 267:3]
  %813 = sext i32 %812 to i64, !dbg !6050         ; [#uses=1 type=i64] [debug line = 267:3]
  %814 = load float** %7, align 8, !dbg !6050     ; [#uses=1 type=float*] [debug line = 267:3]
  %815 = getelementptr inbounds float* %814, i64 %813, !dbg !6050 ; [#uses=1 type=float*] [debug line = 267:3]
  %816 = load float* %815, align 4, !dbg !6050    ; [#uses=1 type=float] [debug line = 267:3]
  %817 = load i32* %i44, align 4, !dbg !6050      ; [#uses=1 type=i32] [debug line = 267:3]
  %818 = sext i32 %817 to i64, !dbg !6050         ; [#uses=1 type=i64] [debug line = 267:3]
  %819 = getelementptr inbounds [24 x float]* @bias_24, i32 0, i64 %818, !dbg !6050 ; [#uses=1 type=float*] [debug line = 267:3]
  store float %816, float* %819, align 4, !dbg !6050 ; [debug line = 267:3]
  br label %820, !dbg !6050                       ; [debug line = 267:3]

; <label>:820                                     ; preds = %810
  %821 = load i32* %i44, align 4, !dbg !6051      ; [#uses=1 type=i32] [debug line = 266:25]
  %822 = add nsw i32 %821, 1, !dbg !6051          ; [#uses=1 type=i32] [debug line = 266:25]
  store i32 %822, i32* %i44, align 4, !dbg !6051  ; [debug line = 266:25]
  br label %807, !dbg !6051                       ; [debug line = 266:25]

; <label>:823                                     ; preds = %807
  call void @_Z24subconv_3x3_16_no_relu_pPA24_A18_A18_fPA1_A3_A3_fPfS2_([24 x [18 x [18 x float]]]* getelementptr inbounds ([1 x [24 x [18 x [18 x float]]]]* @buffer1_1_24_16x16_p, i32 0, i32 0), [1 x [3 x [3 x float]]]* getelementptr inbounds ([24 x [1 x [3 x [3 x float]]]]* @weights_24_1_3x3, i32 0, i32 0), float* getelementptr inbounds ([24 x float]* @bias_24, i32 0, i32 0), [24 x [18 x [18 x float]]]* getelementptr inbounds ([1 x [24 x [18 x [18 x float]]]]* @buffer0_1_24_16x16_p, i32 0, i32 0)), !dbg !6052 ; [debug line = 268:2]
  call void @llvm.dbg.declare(metadata !{i32* %co45}, metadata !6053), !dbg !6055 ; [debug line = 271:10] [debug variable = co]
  store i32 0, i32* %co45, align 4, !dbg !6056    ; [debug line = 271:16]
  br label %824, !dbg !6056                       ; [debug line = 271:16]

; <label>:824                                     ; preds = %855, %823
  %825 = load i32* %co45, align 4, !dbg !6056     ; [#uses=1 type=i32] [debug line = 271:16]
  %826 = icmp slt i32 %825, 24, !dbg !6056        ; [#uses=1 type=i1] [debug line = 271:16]
  br i1 %826, label %827, label %858, !dbg !6056  ; [debug line = 271:16]

; <label>:827                                     ; preds = %824
  call void @llvm.dbg.declare(metadata !{i32* %ci46}, metadata !6057), !dbg !6059 ; [debug line = 272:14] [debug variable = ci]
  store i32 0, i32* %ci46, align 4, !dbg !6060    ; [debug line = 272:20]
  br label %828, !dbg !6060                       ; [debug line = 272:20]

; <label>:828                                     ; preds = %851, %827
  %829 = load i32* %ci46, align 4, !dbg !6060     ; [#uses=1 type=i32] [debug line = 272:20]
  %830 = icmp slt i32 %829, 24, !dbg !6060        ; [#uses=1 type=i1] [debug line = 272:20]
  br i1 %830, label %831, label %854, !dbg !6060  ; [debug line = 272:20]

; <label>:831                                     ; preds = %828
  %832 = load i32* %ci46, align 4, !dbg !6061     ; [#uses=1 type=i32] [debug line = 273:4]
  %833 = sext i32 %832 to i64, !dbg !6061         ; [#uses=1 type=i64] [debug line = 273:4]
  %834 = load i32* %co45, align 4, !dbg !6061     ; [#uses=1 type=i32] [debug line = 273:4]
  %835 = add nsw i32 %834, 144, !dbg !6061        ; [#uses=1 type=i32] [debug line = 273:4]
  %836 = sext i32 %835 to i64, !dbg !6061         ; [#uses=1 type=i64] [debug line = 273:4]
  %837 = load [24 x [1 x [1 x float]]]** %4, align 8, !dbg !6061 ; [#uses=1 type=[24 x [1 x [1 x float]]]*] [debug line = 273:4]
  %838 = getelementptr inbounds [24 x [1 x [1 x float]]]* %837, i64 %836, !dbg !6061 ; [#uses=1 type=[24 x [1 x [1 x float]]]*] [debug line = 273:4]
  %839 = getelementptr inbounds [24 x [1 x [1 x float]]]* %838, i32 0, i64 %833, !dbg !6061 ; [#uses=1 type=[1 x [1 x float]]*] [debug line = 273:4]
  %840 = getelementptr inbounds [1 x [1 x float]]* %839, i32 0, i64 0, !dbg !6061 ; [#uses=1 type=[1 x float]*] [debug line = 273:4]
  %841 = getelementptr inbounds [1 x float]* %840, i32 0, i64 0, !dbg !6061 ; [#uses=1 type=float*] [debug line = 273:4]
  %842 = load float* %841, align 4, !dbg !6061    ; [#uses=1 type=float] [debug line = 273:4]
  %843 = load i32* %ci46, align 4, !dbg !6061     ; [#uses=1 type=i32] [debug line = 273:4]
  %844 = sext i32 %843 to i64, !dbg !6061         ; [#uses=1 type=i64] [debug line = 273:4]
  %845 = load i32* %co45, align 4, !dbg !6061     ; [#uses=1 type=i32] [debug line = 273:4]
  %846 = sext i32 %845 to i64, !dbg !6061         ; [#uses=1 type=i64] [debug line = 273:4]
  %847 = getelementptr inbounds [24 x [24 x [1 x [1 x float]]]]* @weights_24_24_1x1, i32 0, i64 %846, !dbg !6061 ; [#uses=1 type=[24 x [1 x [1 x float]]]*] [debug line = 273:4]
  %848 = getelementptr inbounds [24 x [1 x [1 x float]]]* %847, i32 0, i64 %844, !dbg !6061 ; [#uses=1 type=[1 x [1 x float]]*] [debug line = 273:4]
  %849 = getelementptr inbounds [1 x [1 x float]]* %848, i32 0, i64 0, !dbg !6061 ; [#uses=1 type=[1 x float]*] [debug line = 273:4]
  %850 = getelementptr inbounds [1 x float]* %849, i32 0, i64 0, !dbg !6061 ; [#uses=1 type=float*] [debug line = 273:4]
  store float %842, float* %850, align 4, !dbg !6061 ; [debug line = 273:4]
  br label %851, !dbg !6061                       ; [debug line = 273:4]

; <label>:851                                     ; preds = %831
  %852 = load i32* %ci46, align 4, !dbg !6062     ; [#uses=1 type=i32] [debug line = 272:30]
  %853 = add nsw i32 %852, 1, !dbg !6062          ; [#uses=1 type=i32] [debug line = 272:30]
  store i32 %853, i32* %ci46, align 4, !dbg !6062 ; [debug line = 272:30]
  br label %828, !dbg !6062                       ; [debug line = 272:30]

; <label>:854                                     ; preds = %828
  br label %855, !dbg !6063                       ; [debug line = 273:72]

; <label>:855                                     ; preds = %854
  %856 = load i32* %co45, align 4, !dbg !6064     ; [#uses=1 type=i32] [debug line = 271:27]
  %857 = add nsw i32 %856, 1, !dbg !6064          ; [#uses=1 type=i32] [debug line = 271:27]
  store i32 %857, i32* %co45, align 4, !dbg !6064 ; [debug line = 271:27]
  br label %824, !dbg !6064                       ; [debug line = 271:27]

; <label>:858                                     ; preds = %824
  call void @llvm.dbg.declare(metadata !{i32* %i47}, metadata !6065), !dbg !6067 ; [debug line = 274:10] [debug variable = i]
  store i32 0, i32* %i47, align 4, !dbg !6068     ; [debug line = 274:15]
  br label %859, !dbg !6068                       ; [debug line = 274:15]

; <label>:859                                     ; preds = %872, %858
  %860 = load i32* %i47, align 4, !dbg !6068      ; [#uses=1 type=i32] [debug line = 274:15]
  %861 = icmp slt i32 %860, 24, !dbg !6068        ; [#uses=1 type=i1] [debug line = 274:15]
  br i1 %861, label %862, label %875, !dbg !6068  ; [debug line = 274:15]

; <label>:862                                     ; preds = %859
  %863 = load i32* %i47, align 4, !dbg !6069      ; [#uses=1 type=i32] [debug line = 275:3]
  %864 = add nsw i32 %863, 264, !dbg !6069        ; [#uses=1 type=i32] [debug line = 275:3]
  %865 = sext i32 %864 to i64, !dbg !6069         ; [#uses=1 type=i64] [debug line = 275:3]
  %866 = load float** %7, align 8, !dbg !6069     ; [#uses=1 type=float*] [debug line = 275:3]
  %867 = getelementptr inbounds float* %866, i64 %865, !dbg !6069 ; [#uses=1 type=float*] [debug line = 275:3]
  %868 = load float* %867, align 4, !dbg !6069    ; [#uses=1 type=float] [debug line = 275:3]
  %869 = load i32* %i47, align 4, !dbg !6069      ; [#uses=1 type=i32] [debug line = 275:3]
  %870 = sext i32 %869 to i64, !dbg !6069         ; [#uses=1 type=i64] [debug line = 275:3]
  %871 = getelementptr inbounds [24 x float]* @bias_24, i32 0, i64 %870, !dbg !6069 ; [#uses=1 type=float*] [debug line = 275:3]
  store float %868, float* %871, align 4, !dbg !6069 ; [debug line = 275:3]
  br label %872, !dbg !6069                       ; [debug line = 275:3]

; <label>:872                                     ; preds = %862
  %873 = load i32* %i47, align 4, !dbg !6070      ; [#uses=1 type=i32] [debug line = 274:25]
  %874 = add nsw i32 %873, 1, !dbg !6070          ; [#uses=1 type=i32] [debug line = 274:25]
  store i32 %874, i32* %i47, align 4, !dbg !6070  ; [debug line = 274:25]
  br label %859, !dbg !6070                       ; [debug line = 274:25]

; <label>:875                                     ; preds = %859
  call void @_Z16subconv_1x1_16_pPA24_A18_A18_fPA24_A1_A1_fPfS2_([24 x [18 x [18 x float]]]* getelementptr inbounds ([1 x [24 x [18 x [18 x float]]]]* @buffer0_1_24_16x16_p, i32 0, i32 0), [24 x [1 x [1 x float]]]* getelementptr inbounds ([24 x [24 x [1 x [1 x float]]]]* @weights_24_24_1x1, i32 0, i32 0), float* getelementptr inbounds ([24 x float]* @bias_24, i32 0, i32 0), [24 x [18 x [18 x float]]]* getelementptr inbounds ([1 x [24 x [18 x [18 x float]]]]* @buffer1_1_24_16x16_p, i32 0, i32 0)), !dbg !6071 ; [debug line = 276:2]
  call void @llvm.dbg.declare(metadata !{i32* %co48}, metadata !6072), !dbg !6074 ; [debug line = 279:10] [debug variable = co]
  store i32 0, i32* %co48, align 4, !dbg !6075    ; [debug line = 279:16]
  br label %876, !dbg !6075                       ; [debug line = 279:16]

; <label>:876                                     ; preds = %919, %875
  %877 = load i32* %co48, align 4, !dbg !6075     ; [#uses=1 type=i32] [debug line = 279:16]
  %878 = icmp slt i32 %877, 24, !dbg !6075        ; [#uses=1 type=i1] [debug line = 279:16]
  br i1 %878, label %879, label %922, !dbg !6075  ; [debug line = 279:16]

; <label>:879                                     ; preds = %876
  call void @llvm.dbg.declare(metadata !{i32* %h49}, metadata !6076), !dbg !6079 ; [debug line = 280:11] [debug variable = h]
  store i32 0, i32* %h49, align 4, !dbg !6080     ; [debug line = 280:14]
  br label %880, !dbg !6080                       ; [debug line = 280:14]

; <label>:880                                     ; preds = %915, %879
  %881 = load i32* %h49, align 4, !dbg !6080      ; [#uses=1 type=i32] [debug line = 280:14]
  %882 = icmp slt i32 %881, 16, !dbg !6080        ; [#uses=1 type=i1] [debug line = 280:14]
  br i1 %882, label %883, label %918, !dbg !6080  ; [debug line = 280:14]

; <label>:883                                     ; preds = %880
  call void @llvm.dbg.declare(metadata !{i32* %w50}, metadata !6081), !dbg !6084 ; [debug line = 281:12] [debug variable = w]
  store i32 0, i32* %w50, align 4, !dbg !6085     ; [debug line = 281:17]
  br label %884, !dbg !6085                       ; [debug line = 281:17]

; <label>:884                                     ; preds = %911, %883
  %885 = load i32* %w50, align 4, !dbg !6085      ; [#uses=1 type=i32] [debug line = 281:17]
  %886 = icmp slt i32 %885, 16, !dbg !6085        ; [#uses=1 type=i1] [debug line = 281:17]
  br i1 %886, label %887, label %914, !dbg !6085  ; [debug line = 281:17]

; <label>:887                                     ; preds = %884
  %888 = load i32* %w50, align 4, !dbg !6086      ; [#uses=1 type=i32] [debug line = 283:5]
  %889 = add nsw i32 %888, 1, !dbg !6086          ; [#uses=1 type=i32] [debug line = 283:5]
  %890 = sext i32 %889 to i64, !dbg !6086         ; [#uses=1 type=i64] [debug line = 283:5]
  %891 = load i32* %h49, align 4, !dbg !6086      ; [#uses=1 type=i32] [debug line = 283:5]
  %892 = add nsw i32 %891, 1, !dbg !6086          ; [#uses=1 type=i32] [debug line = 283:5]
  %893 = sext i32 %892 to i64, !dbg !6086         ; [#uses=1 type=i64] [debug line = 283:5]
  %894 = load i32* %co48, align 4, !dbg !6086     ; [#uses=1 type=i32] [debug line = 283:5]
  %895 = sext i32 %894 to i64, !dbg !6086         ; [#uses=1 type=i64] [debug line = 283:5]
  %896 = getelementptr inbounds [48 x [18 x [18 x float]]]* getelementptr inbounds ([1 x [48 x [18 x [18 x float]]]]* @shuffleunit0_0_output_p, i32 0, i64 0), i32 0, i64 %895, !dbg !6086 ; [#uses=1 type=[18 x [18 x float]]*] [debug line = 283:5]
  %897 = getelementptr inbounds [18 x [18 x float]]* %896, i32 0, i64 %893, !dbg !6086 ; [#uses=1 type=[18 x float]*] [debug line = 283:5]
  %898 = getelementptr inbounds [18 x float]* %897, i32 0, i64 %890, !dbg !6086 ; [#uses=1 type=float*] [debug line = 283:5]
  %899 = load float* %898, align 4, !dbg !6086    ; [#uses=1 type=float] [debug line = 283:5]
  %900 = load i32* %w50, align 4, !dbg !6086      ; [#uses=1 type=i32] [debug line = 283:5]
  %901 = add nsw i32 %900, 1, !dbg !6086          ; [#uses=1 type=i32] [debug line = 283:5]
  %902 = sext i32 %901 to i64, !dbg !6086         ; [#uses=1 type=i64] [debug line = 283:5]
  %903 = load i32* %h49, align 4, !dbg !6086      ; [#uses=1 type=i32] [debug line = 283:5]
  %904 = add nsw i32 %903, 1, !dbg !6086          ; [#uses=1 type=i32] [debug line = 283:5]
  %905 = sext i32 %904 to i64, !dbg !6086         ; [#uses=1 type=i64] [debug line = 283:5]
  %906 = load i32* %co48, align 4, !dbg !6086     ; [#uses=1 type=i32] [debug line = 283:5]
  %907 = sext i32 %906 to i64, !dbg !6086         ; [#uses=1 type=i64] [debug line = 283:5]
  %908 = getelementptr inbounds [24 x [18 x [18 x float]]]* getelementptr inbounds ([1 x [24 x [18 x [18 x float]]]]* @buffer0_1_24_16x16_p, i32 0, i64 0), i32 0, i64 %907, !dbg !6086 ; [#uses=1 type=[18 x [18 x float]]*] [debug line = 283:5]
  %909 = getelementptr inbounds [18 x [18 x float]]* %908, i32 0, i64 %905, !dbg !6086 ; [#uses=1 type=[18 x float]*] [debug line = 283:5]
  %910 = getelementptr inbounds [18 x float]* %909, i32 0, i64 %902, !dbg !6086 ; [#uses=1 type=float*] [debug line = 283:5]
  store float %899, float* %910, align 4, !dbg !6086 ; [debug line = 283:5]
  br label %911, !dbg !6088                       ; [debug line = 284:4]

; <label>:911                                     ; preds = %887
  %912 = load i32* %w50, align 4, !dbg !6089      ; [#uses=1 type=i32] [debug line = 281:23]
  %913 = add nsw i32 %912, 1, !dbg !6089          ; [#uses=1 type=i32] [debug line = 281:23]
  store i32 %913, i32* %w50, align 4, !dbg !6089  ; [debug line = 281:23]
  br label %884, !dbg !6089                       ; [debug line = 281:23]

; <label>:914                                     ; preds = %884
  br label %915, !dbg !6090                       ; [debug line = 285:3]

; <label>:915                                     ; preds = %914
  %916 = load i32* %h49, align 4, !dbg !6091      ; [#uses=1 type=i32] [debug line = 280:20]
  %917 = add nsw i32 %916, 1, !dbg !6091          ; [#uses=1 type=i32] [debug line = 280:20]
  store i32 %917, i32* %h49, align 4, !dbg !6091  ; [debug line = 280:20]
  br label %880, !dbg !6091                       ; [debug line = 280:20]

; <label>:918                                     ; preds = %880
  br label %919, !dbg !6092                       ; [debug line = 286:2]

; <label>:919                                     ; preds = %918
  %920 = load i32* %co48, align 4, !dbg !6093     ; [#uses=1 type=i32] [debug line = 279:24]
  %921 = add nsw i32 %920, 1, !dbg !6093          ; [#uses=1 type=i32] [debug line = 279:24]
  store i32 %921, i32* %co48, align 4, !dbg !6093 ; [debug line = 279:24]
  br label %876, !dbg !6093                       ; [debug line = 279:24]

; <label>:922                                     ; preds = %876
  call void @_Z12shuffle_24_pPA24_A18_A18_fS2_PA48_S0_([24 x [18 x [18 x float]]]* getelementptr inbounds ([1 x [24 x [18 x [18 x float]]]]* @buffer0_1_24_16x16_p, i32 0, i32 0), [24 x [18 x [18 x float]]]* getelementptr inbounds ([1 x [24 x [18 x [18 x float]]]]* @buffer1_1_24_16x16_p, i32 0, i32 0), [48 x [18 x [18 x float]]]* getelementptr inbounds ([1 x [48 x [18 x [18 x float]]]]* @shuffleunit0_1_output_p, i32 0, i32 0)), !dbg !6094 ; [debug line = 287:2]
  call void @llvm.dbg.declare(metadata !{i32* %co51}, metadata !6095), !dbg !6097 ; [debug line = 291:10] [debug variable = co]
  store i32 0, i32* %co51, align 4, !dbg !6098    ; [debug line = 291:16]
  br label %923, !dbg !6098                       ; [debug line = 291:16]

; <label>:923                                     ; preds = %967, %922
  %924 = load i32* %co51, align 4, !dbg !6098     ; [#uses=1 type=i32] [debug line = 291:16]
  %925 = icmp slt i32 %924, 24, !dbg !6098        ; [#uses=1 type=i1] [debug line = 291:16]
  br i1 %925, label %926, label %970, !dbg !6098  ; [debug line = 291:16]

; <label>:926                                     ; preds = %923
  call void @llvm.dbg.declare(metadata !{i32* %h52}, metadata !6099), !dbg !6102 ; [debug line = 292:11] [debug variable = h]
  store i32 0, i32* %h52, align 4, !dbg !6103     ; [debug line = 292:14]
  br label %927, !dbg !6103                       ; [debug line = 292:14]

; <label>:927                                     ; preds = %963, %926
  %928 = load i32* %h52, align 4, !dbg !6103      ; [#uses=1 type=i32] [debug line = 292:14]
  %929 = icmp slt i32 %928, 16, !dbg !6103        ; [#uses=1 type=i1] [debug line = 292:14]
  br i1 %929, label %930, label %966, !dbg !6103  ; [debug line = 292:14]

; <label>:930                                     ; preds = %927
  call void @llvm.dbg.declare(metadata !{i32* %w53}, metadata !6104), !dbg !6107 ; [debug line = 293:12] [debug variable = w]
  store i32 0, i32* %w53, align 4, !dbg !6108     ; [debug line = 293:17]
  br label %931, !dbg !6108                       ; [debug line = 293:17]

; <label>:931                                     ; preds = %959, %930
  %932 = load i32* %w53, align 4, !dbg !6108      ; [#uses=1 type=i32] [debug line = 293:17]
  %933 = icmp slt i32 %932, 16, !dbg !6108        ; [#uses=1 type=i1] [debug line = 293:17]
  br i1 %933, label %934, label %962, !dbg !6108  ; [debug line = 293:17]

; <label>:934                                     ; preds = %931
  %935 = load i32* %w53, align 4, !dbg !6109      ; [#uses=1 type=i32] [debug line = 294:5]
  %936 = add nsw i32 %935, 1, !dbg !6109          ; [#uses=1 type=i32] [debug line = 294:5]
  %937 = sext i32 %936 to i64, !dbg !6109         ; [#uses=1 type=i64] [debug line = 294:5]
  %938 = load i32* %h52, align 4, !dbg !6109      ; [#uses=1 type=i32] [debug line = 294:5]
  %939 = add nsw i32 %938, 1, !dbg !6109          ; [#uses=1 type=i32] [debug line = 294:5]
  %940 = sext i32 %939 to i64, !dbg !6109         ; [#uses=1 type=i64] [debug line = 294:5]
  %941 = load i32* %co51, align 4, !dbg !6109     ; [#uses=1 type=i32] [debug line = 294:5]
  %942 = add nsw i32 24, %941, !dbg !6109         ; [#uses=1 type=i32] [debug line = 294:5]
  %943 = sext i32 %942 to i64, !dbg !6109         ; [#uses=1 type=i64] [debug line = 294:5]
  %944 = getelementptr inbounds [48 x [18 x [18 x float]]]* getelementptr inbounds ([1 x [48 x [18 x [18 x float]]]]* @shuffleunit0_1_output_p, i32 0, i64 0), i32 0, i64 %943, !dbg !6109 ; [#uses=1 type=[18 x [18 x float]]*] [debug line = 294:5]
  %945 = getelementptr inbounds [18 x [18 x float]]* %944, i32 0, i64 %940, !dbg !6109 ; [#uses=1 type=[18 x float]*] [debug line = 294:5]
  %946 = getelementptr inbounds [18 x float]* %945, i32 0, i64 %937, !dbg !6109 ; [#uses=1 type=float*] [debug line = 294:5]
  %947 = load float* %946, align 4, !dbg !6109    ; [#uses=1 type=float] [debug line = 294:5]
  %948 = load i32* %w53, align 4, !dbg !6109      ; [#uses=1 type=i32] [debug line = 294:5]
  %949 = add nsw i32 %948, 1, !dbg !6109          ; [#uses=1 type=i32] [debug line = 294:5]
  %950 = sext i32 %949 to i64, !dbg !6109         ; [#uses=1 type=i64] [debug line = 294:5]
  %951 = load i32* %h52, align 4, !dbg !6109      ; [#uses=1 type=i32] [debug line = 294:5]
  %952 = add nsw i32 %951, 1, !dbg !6109          ; [#uses=1 type=i32] [debug line = 294:5]
  %953 = sext i32 %952 to i64, !dbg !6109         ; [#uses=1 type=i64] [debug line = 294:5]
  %954 = load i32* %co51, align 4, !dbg !6109     ; [#uses=1 type=i32] [debug line = 294:5]
  %955 = sext i32 %954 to i64, !dbg !6109         ; [#uses=1 type=i64] [debug line = 294:5]
  %956 = getelementptr inbounds [24 x [18 x [18 x float]]]* getelementptr inbounds ([1 x [24 x [18 x [18 x float]]]]* @buffer0_1_24_16x16_p, i32 0, i64 0), i32 0, i64 %955, !dbg !6109 ; [#uses=1 type=[18 x [18 x float]]*] [debug line = 294:5]
  %957 = getelementptr inbounds [18 x [18 x float]]* %956, i32 0, i64 %953, !dbg !6109 ; [#uses=1 type=[18 x float]*] [debug line = 294:5]
  %958 = getelementptr inbounds [18 x float]* %957, i32 0, i64 %950, !dbg !6109 ; [#uses=1 type=float*] [debug line = 294:5]
  store float %947, float* %958, align 4, !dbg !6109 ; [debug line = 294:5]
  br label %959, !dbg !6111                       ; [debug line = 296:4]

; <label>:959                                     ; preds = %934
  %960 = load i32* %w53, align 4, !dbg !6112      ; [#uses=1 type=i32] [debug line = 293:23]
  %961 = add nsw i32 %960, 1, !dbg !6112          ; [#uses=1 type=i32] [debug line = 293:23]
  store i32 %961, i32* %w53, align 4, !dbg !6112  ; [debug line = 293:23]
  br label %931, !dbg !6112                       ; [debug line = 293:23]

; <label>:962                                     ; preds = %931
  br label %963, !dbg !6113                       ; [debug line = 297:3]

; <label>:963                                     ; preds = %962
  %964 = load i32* %h52, align 4, !dbg !6114      ; [#uses=1 type=i32] [debug line = 292:20]
  %965 = add nsw i32 %964, 1, !dbg !6114          ; [#uses=1 type=i32] [debug line = 292:20]
  store i32 %965, i32* %h52, align 4, !dbg !6114  ; [debug line = 292:20]
  br label %927, !dbg !6114                       ; [debug line = 292:20]

; <label>:966                                     ; preds = %927
  br label %967, !dbg !6115                       ; [debug line = 298:2]

; <label>:967                                     ; preds = %966
  %968 = load i32* %co51, align 4, !dbg !6116     ; [#uses=1 type=i32] [debug line = 291:24]
  %969 = add nsw i32 %968, 1, !dbg !6116          ; [#uses=1 type=i32] [debug line = 291:24]
  store i32 %969, i32* %co51, align 4, !dbg !6116 ; [debug line = 291:24]
  br label %923, !dbg !6116                       ; [debug line = 291:24]

; <label>:970                                     ; preds = %923
  call void @llvm.dbg.declare(metadata !{i32* %co54}, metadata !6117), !dbg !6119 ; [debug line = 300:10] [debug variable = co]
  store i32 0, i32* %co54, align 4, !dbg !6120    ; [debug line = 300:16]
  br label %971, !dbg !6120                       ; [debug line = 300:16]

; <label>:971                                     ; preds = %1002, %970
  %972 = load i32* %co54, align 4, !dbg !6120     ; [#uses=1 type=i32] [debug line = 300:16]
  %973 = icmp slt i32 %972, 24, !dbg !6120        ; [#uses=1 type=i1] [debug line = 300:16]
  br i1 %973, label %974, label %1005, !dbg !6120 ; [debug line = 300:16]

; <label>:974                                     ; preds = %971
  call void @llvm.dbg.declare(metadata !{i32* %ci55}, metadata !6121), !dbg !6123 ; [debug line = 301:14] [debug variable = ci]
  store i32 0, i32* %ci55, align 4, !dbg !6124    ; [debug line = 301:20]
  br label %975, !dbg !6124                       ; [debug line = 301:20]

; <label>:975                                     ; preds = %998, %974
  %976 = load i32* %ci55, align 4, !dbg !6124     ; [#uses=1 type=i32] [debug line = 301:20]
  %977 = icmp slt i32 %976, 24, !dbg !6124        ; [#uses=1 type=i1] [debug line = 301:20]
  br i1 %977, label %978, label %1001, !dbg !6124 ; [debug line = 301:20]

; <label>:978                                     ; preds = %975
  %979 = load i32* %ci55, align 4, !dbg !6125     ; [#uses=1 type=i32] [debug line = 302:4]
  %980 = sext i32 %979 to i64, !dbg !6125         ; [#uses=1 type=i64] [debug line = 302:4]
  %981 = load i32* %co54, align 4, !dbg !6125     ; [#uses=1 type=i32] [debug line = 302:4]
  %982 = add nsw i32 %981, 168, !dbg !6125        ; [#uses=1 type=i32] [debug line = 302:4]
  %983 = sext i32 %982 to i64, !dbg !6125         ; [#uses=1 type=i64] [debug line = 302:4]
  %984 = load [24 x [1 x [1 x float]]]** %4, align 8, !dbg !6125 ; [#uses=1 type=[24 x [1 x [1 x float]]]*] [debug line = 302:4]
  %985 = getelementptr inbounds [24 x [1 x [1 x float]]]* %984, i64 %983, !dbg !6125 ; [#uses=1 type=[24 x [1 x [1 x float]]]*] [debug line = 302:4]
  %986 = getelementptr inbounds [24 x [1 x [1 x float]]]* %985, i32 0, i64 %980, !dbg !6125 ; [#uses=1 type=[1 x [1 x float]]*] [debug line = 302:4]
  %987 = getelementptr inbounds [1 x [1 x float]]* %986, i32 0, i64 0, !dbg !6125 ; [#uses=1 type=[1 x float]*] [debug line = 302:4]
  %988 = getelementptr inbounds [1 x float]* %987, i32 0, i64 0, !dbg !6125 ; [#uses=1 type=float*] [debug line = 302:4]
  %989 = load float* %988, align 4, !dbg !6125    ; [#uses=1 type=float] [debug line = 302:4]
  %990 = load i32* %ci55, align 4, !dbg !6125     ; [#uses=1 type=i32] [debug line = 302:4]
  %991 = sext i32 %990 to i64, !dbg !6125         ; [#uses=1 type=i64] [debug line = 302:4]
  %992 = load i32* %co54, align 4, !dbg !6125     ; [#uses=1 type=i32] [debug line = 302:4]
  %993 = sext i32 %992 to i64, !dbg !6125         ; [#uses=1 type=i64] [debug line = 302:4]
  %994 = getelementptr inbounds [24 x [24 x [1 x [1 x float]]]]* @weights_24_24_1x1, i32 0, i64 %993, !dbg !6125 ; [#uses=1 type=[24 x [1 x [1 x float]]]*] [debug line = 302:4]
  %995 = getelementptr inbounds [24 x [1 x [1 x float]]]* %994, i32 0, i64 %991, !dbg !6125 ; [#uses=1 type=[1 x [1 x float]]*] [debug line = 302:4]
  %996 = getelementptr inbounds [1 x [1 x float]]* %995, i32 0, i64 0, !dbg !6125 ; [#uses=1 type=[1 x float]*] [debug line = 302:4]
  %997 = getelementptr inbounds [1 x float]* %996, i32 0, i64 0, !dbg !6125 ; [#uses=1 type=float*] [debug line = 302:4]
  store float %989, float* %997, align 4, !dbg !6125 ; [debug line = 302:4]
  br label %998, !dbg !6125                       ; [debug line = 302:4]

; <label>:998                                     ; preds = %978
  %999 = load i32* %ci55, align 4, !dbg !6126     ; [#uses=1 type=i32] [debug line = 301:30]
  %1000 = add nsw i32 %999, 1, !dbg !6126         ; [#uses=1 type=i32] [debug line = 301:30]
  store i32 %1000, i32* %ci55, align 4, !dbg !6126 ; [debug line = 301:30]
  br label %975, !dbg !6126                       ; [debug line = 301:30]

; <label>:1001                                    ; preds = %975
  br label %1002, !dbg !6127                      ; [debug line = 302:72]

; <label>:1002                                    ; preds = %1001
  %1003 = load i32* %co54, align 4, !dbg !6128    ; [#uses=1 type=i32] [debug line = 300:27]
  %1004 = add nsw i32 %1003, 1, !dbg !6128        ; [#uses=1 type=i32] [debug line = 300:27]
  store i32 %1004, i32* %co54, align 4, !dbg !6128 ; [debug line = 300:27]
  br label %971, !dbg !6128                       ; [debug line = 300:27]

; <label>:1005                                    ; preds = %971
  call void @llvm.dbg.declare(metadata !{i32* %i56}, metadata !6129), !dbg !6131 ; [debug line = 303:10] [debug variable = i]
  store i32 0, i32* %i56, align 4, !dbg !6132     ; [debug line = 303:15]
  br label %1006, !dbg !6132                      ; [debug line = 303:15]

; <label>:1006                                    ; preds = %1019, %1005
  %1007 = load i32* %i56, align 4, !dbg !6132     ; [#uses=1 type=i32] [debug line = 303:15]
  %1008 = icmp slt i32 %1007, 24, !dbg !6132      ; [#uses=1 type=i1] [debug line = 303:15]
  br i1 %1008, label %1009, label %1022, !dbg !6132 ; [debug line = 303:15]

; <label>:1009                                    ; preds = %1006
  %1010 = load i32* %i56, align 4, !dbg !6133     ; [#uses=1 type=i32] [debug line = 304:3]
  %1011 = add nsw i32 %1010, 288, !dbg !6133      ; [#uses=1 type=i32] [debug line = 304:3]
  %1012 = sext i32 %1011 to i64, !dbg !6133       ; [#uses=1 type=i64] [debug line = 304:3]
  %1013 = load float** %7, align 8, !dbg !6133    ; [#uses=1 type=float*] [debug line = 304:3]
  %1014 = getelementptr inbounds float* %1013, i64 %1012, !dbg !6133 ; [#uses=1 type=float*] [debug line = 304:3]
  %1015 = load float* %1014, align 4, !dbg !6133  ; [#uses=1 type=float] [debug line = 304:3]
  %1016 = load i32* %i56, align 4, !dbg !6133     ; [#uses=1 type=i32] [debug line = 304:3]
  %1017 = sext i32 %1016 to i64, !dbg !6133       ; [#uses=1 type=i64] [debug line = 304:3]
  %1018 = getelementptr inbounds [24 x float]* @bias_24, i32 0, i64 %1017, !dbg !6133 ; [#uses=1 type=float*] [debug line = 304:3]
  store float %1015, float* %1018, align 4, !dbg !6133 ; [debug line = 304:3]
  br label %1019, !dbg !6133                      ; [debug line = 304:3]

; <label>:1019                                    ; preds = %1009
  %1020 = load i32* %i56, align 4, !dbg !6134     ; [#uses=1 type=i32] [debug line = 303:25]
  %1021 = add nsw i32 %1020, 1, !dbg !6134        ; [#uses=1 type=i32] [debug line = 303:25]
  store i32 %1021, i32* %i56, align 4, !dbg !6134 ; [debug line = 303:25]
  br label %1006, !dbg !6134                      ; [debug line = 303:25]

; <label>:1022                                    ; preds = %1006
  call void @_Z16subconv_1x1_16_pPA24_A18_A18_fPA24_A1_A1_fPfS2_([24 x [18 x [18 x float]]]* getelementptr inbounds ([1 x [24 x [18 x [18 x float]]]]* @buffer0_1_24_16x16_p, i32 0, i32 0), [24 x [1 x [1 x float]]]* getelementptr inbounds ([24 x [24 x [1 x [1 x float]]]]* @weights_24_24_1x1, i32 0, i32 0), float* getelementptr inbounds ([24 x float]* @bias_24, i32 0, i32 0), [24 x [18 x [18 x float]]]* getelementptr inbounds ([1 x [24 x [18 x [18 x float]]]]* @buffer1_1_24_16x16_p, i32 0, i32 0)), !dbg !6135 ; [debug line = 305:2]
  call void @llvm.dbg.declare(metadata !{i32* %co57}, metadata !6136), !dbg !6138 ; [debug line = 310:10] [debug variable = co]
  store i32 0, i32* %co57, align 4, !dbg !6139    ; [debug line = 310:16]
  br label %1023, !dbg !6139                      ; [debug line = 310:16]

; <label>:1023                                    ; preds = %1066, %1022
  %1024 = load i32* %co57, align 4, !dbg !6139    ; [#uses=1 type=i32] [debug line = 310:16]
  %1025 = icmp slt i32 %1024, 24, !dbg !6139      ; [#uses=1 type=i1] [debug line = 310:16]
  br i1 %1025, label %1026, label %1069, !dbg !6139 ; [debug line = 310:16]

; <label>:1026                                    ; preds = %1023
  call void @llvm.dbg.declare(metadata !{i32* %w58}, metadata !6140), !dbg !6142 ; [debug line = 311:14] [debug variable = w]
  store i32 0, i32* %w58, align 4, !dbg !6143     ; [debug line = 311:19]
  br label %1027, !dbg !6143                      ; [debug line = 311:19]

; <label>:1027                                    ; preds = %1062, %1026
  %1028 = load i32* %w58, align 4, !dbg !6143     ; [#uses=1 type=i32] [debug line = 311:19]
  %1029 = icmp slt i32 %1028, 3, !dbg !6143       ; [#uses=1 type=i1] [debug line = 311:19]
  br i1 %1029, label %1030, label %1065, !dbg !6143 ; [debug line = 311:19]

; <label>:1030                                    ; preds = %1027
  call void @llvm.dbg.declare(metadata !{i32* %h59}, metadata !6144), !dbg !6146 ; [debug line = 312:18] [debug variable = h]
  store i32 0, i32* %h59, align 4, !dbg !6147     ; [debug line = 312:23]
  br label %1031, !dbg !6147                      ; [debug line = 312:23]

; <label>:1031                                    ; preds = %1058, %1030
  %1032 = load i32* %h59, align 4, !dbg !6147     ; [#uses=1 type=i32] [debug line = 312:23]
  %1033 = icmp slt i32 %1032, 3, !dbg !6147       ; [#uses=1 type=i1] [debug line = 312:23]
  br i1 %1033, label %1034, label %1061, !dbg !6147 ; [debug line = 312:23]

; <label>:1034                                    ; preds = %1031
  %1035 = load i32* %h59, align 4, !dbg !6148     ; [#uses=1 type=i32] [debug line = 313:5]
  %1036 = sext i32 %1035 to i64, !dbg !6148       ; [#uses=1 type=i64] [debug line = 313:5]
  %1037 = load i32* %w58, align 4, !dbg !6148     ; [#uses=1 type=i32] [debug line = 313:5]
  %1038 = sext i32 %1037 to i64, !dbg !6148       ; [#uses=1 type=i64] [debug line = 313:5]
  %1039 = load i32* %co57, align 4, !dbg !6148    ; [#uses=1 type=i32] [debug line = 313:5]
  %1040 = add nsw i32 %1039, 96, !dbg !6148       ; [#uses=1 type=i32] [debug line = 313:5]
  %1041 = sext i32 %1040 to i64, !dbg !6148       ; [#uses=1 type=i64] [debug line = 313:5]
  %1042 = load [1 x [3 x [3 x float]]]** %3, align 8, !dbg !6148 ; [#uses=1 type=[1 x [3 x [3 x float]]]*] [debug line = 313:5]
  %1043 = getelementptr inbounds [1 x [3 x [3 x float]]]* %1042, i64 %1041, !dbg !6148 ; [#uses=1 type=[1 x [3 x [3 x float]]]*] [debug line = 313:5]
  %1044 = getelementptr inbounds [1 x [3 x [3 x float]]]* %1043, i32 0, i64 0, !dbg !6148 ; [#uses=1 type=[3 x [3 x float]]*] [debug line = 313:5]
  %1045 = getelementptr inbounds [3 x [3 x float]]* %1044, i32 0, i64 %1038, !dbg !6148 ; [#uses=1 type=[3 x float]*] [debug line = 313:5]
  %1046 = getelementptr inbounds [3 x float]* %1045, i32 0, i64 %1036, !dbg !6148 ; [#uses=1 type=float*] [debug line = 313:5]
  %1047 = load float* %1046, align 4, !dbg !6148  ; [#uses=1 type=float] [debug line = 313:5]
  %1048 = load i32* %h59, align 4, !dbg !6148     ; [#uses=1 type=i32] [debug line = 313:5]
  %1049 = sext i32 %1048 to i64, !dbg !6148       ; [#uses=1 type=i64] [debug line = 313:5]
  %1050 = load i32* %w58, align 4, !dbg !6148     ; [#uses=1 type=i32] [debug line = 313:5]
  %1051 = sext i32 %1050 to i64, !dbg !6148       ; [#uses=1 type=i64] [debug line = 313:5]
  %1052 = load i32* %co57, align 4, !dbg !6148    ; [#uses=1 type=i32] [debug line = 313:5]
  %1053 = sext i32 %1052 to i64, !dbg !6148       ; [#uses=1 type=i64] [debug line = 313:5]
  %1054 = getelementptr inbounds [24 x [1 x [3 x [3 x float]]]]* @weights_24_1_3x3, i32 0, i64 %1053, !dbg !6148 ; [#uses=1 type=[1 x [3 x [3 x float]]]*] [debug line = 313:5]
  %1055 = getelementptr inbounds [1 x [3 x [3 x float]]]* %1054, i32 0, i64 0, !dbg !6148 ; [#uses=1 type=[3 x [3 x float]]*] [debug line = 313:5]
  %1056 = getelementptr inbounds [3 x [3 x float]]* %1055, i32 0, i64 %1051, !dbg !6148 ; [#uses=1 type=[3 x float]*] [debug line = 313:5]
  %1057 = getelementptr inbounds [3 x float]* %1056, i32 0, i64 %1049, !dbg !6148 ; [#uses=1 type=float*] [debug line = 313:5]
  store float %1047, float* %1057, align 4, !dbg !6148 ; [debug line = 313:5]
  br label %1058, !dbg !6148                      ; [debug line = 313:5]

; <label>:1058                                    ; preds = %1034
  %1059 = load i32* %h59, align 4, !dbg !6149     ; [#uses=1 type=i32] [debug line = 312:30]
  %1060 = add nsw i32 %1059, 1, !dbg !6149        ; [#uses=1 type=i32] [debug line = 312:30]
  store i32 %1060, i32* %h59, align 4, !dbg !6149 ; [debug line = 312:30]
  br label %1031, !dbg !6149                      ; [debug line = 312:30]

; <label>:1061                                    ; preds = %1031
  br label %1062, !dbg !6150                      ; [debug line = 313:70]

; <label>:1062                                    ; preds = %1061
  %1063 = load i32* %w58, align 4, !dbg !6151     ; [#uses=1 type=i32] [debug line = 311:27]
  %1064 = add nsw i32 %1063, 1, !dbg !6151        ; [#uses=1 type=i32] [debug line = 311:27]
  store i32 %1064, i32* %w58, align 4, !dbg !6151 ; [debug line = 311:27]
  br label %1027, !dbg !6151                      ; [debug line = 311:27]

; <label>:1065                                    ; preds = %1027
  br label %1066, !dbg !6152                      ; [debug line = 313:70]

; <label>:1066                                    ; preds = %1065
  %1067 = load i32* %co57, align 4, !dbg !6153    ; [#uses=1 type=i32] [debug line = 310:23]
  %1068 = add nsw i32 %1067, 1, !dbg !6153        ; [#uses=1 type=i32] [debug line = 310:23]
  store i32 %1068, i32* %co57, align 4, !dbg !6153 ; [debug line = 310:23]
  br label %1023, !dbg !6153                      ; [debug line = 310:23]

; <label>:1069                                    ; preds = %1023
  call void @llvm.dbg.declare(metadata !{i32* %i60}, metadata !6154), !dbg !6156 ; [debug line = 314:10] [debug variable = i]
  store i32 0, i32* %i60, align 4, !dbg !6157     ; [debug line = 314:15]
  br label %1070, !dbg !6157                      ; [debug line = 314:15]

; <label>:1070                                    ; preds = %1083, %1069
  %1071 = load i32* %i60, align 4, !dbg !6157     ; [#uses=1 type=i32] [debug line = 314:15]
  %1072 = icmp slt i32 %1071, 24, !dbg !6157      ; [#uses=1 type=i1] [debug line = 314:15]
  br i1 %1072, label %1073, label %1086, !dbg !6157 ; [debug line = 314:15]

; <label>:1073                                    ; preds = %1070
  %1074 = load i32* %i60, align 4, !dbg !6158     ; [#uses=1 type=i32] [debug line = 315:3]
  %1075 = add nsw i32 %1074, 312, !dbg !6158      ; [#uses=1 type=i32] [debug line = 315:3]
  %1076 = sext i32 %1075 to i64, !dbg !6158       ; [#uses=1 type=i64] [debug line = 315:3]
  %1077 = load float** %7, align 8, !dbg !6158    ; [#uses=1 type=float*] [debug line = 315:3]
  %1078 = getelementptr inbounds float* %1077, i64 %1076, !dbg !6158 ; [#uses=1 type=float*] [debug line = 315:3]
  %1079 = load float* %1078, align 4, !dbg !6158  ; [#uses=1 type=float] [debug line = 315:3]
  %1080 = load i32* %i60, align 4, !dbg !6158     ; [#uses=1 type=i32] [debug line = 315:3]
  %1081 = sext i32 %1080 to i64, !dbg !6158       ; [#uses=1 type=i64] [debug line = 315:3]
  %1082 = getelementptr inbounds [24 x float]* @bias_24, i32 0, i64 %1081, !dbg !6158 ; [#uses=1 type=float*] [debug line = 315:3]
  store float %1079, float* %1082, align 4, !dbg !6158 ; [debug line = 315:3]
  br label %1083, !dbg !6158                      ; [debug line = 315:3]

; <label>:1083                                    ; preds = %1073
  %1084 = load i32* %i60, align 4, !dbg !6159     ; [#uses=1 type=i32] [debug line = 314:25]
  %1085 = add nsw i32 %1084, 1, !dbg !6159        ; [#uses=1 type=i32] [debug line = 314:25]
  store i32 %1085, i32* %i60, align 4, !dbg !6159 ; [debug line = 314:25]
  br label %1070, !dbg !6159                      ; [debug line = 314:25]

; <label>:1086                                    ; preds = %1070
  call void @_Z24subconv_3x3_16_no_relu_pPA24_A18_A18_fPA1_A3_A3_fPfS2_([24 x [18 x [18 x float]]]* getelementptr inbounds ([1 x [24 x [18 x [18 x float]]]]* @buffer1_1_24_16x16_p, i32 0, i32 0), [1 x [3 x [3 x float]]]* getelementptr inbounds ([24 x [1 x [3 x [3 x float]]]]* @weights_24_1_3x3, i32 0, i32 0), float* getelementptr inbounds ([24 x float]* @bias_24, i32 0, i32 0), [24 x [18 x [18 x float]]]* getelementptr inbounds ([1 x [24 x [18 x [18 x float]]]]* @buffer0_1_24_16x16_p, i32 0, i32 0)), !dbg !6160 ; [debug line = 316:2]
  call void @llvm.dbg.declare(metadata !{i32* %co61}, metadata !6161), !dbg !6163 ; [debug line = 320:10] [debug variable = co]
  store i32 0, i32* %co61, align 4, !dbg !6164    ; [debug line = 320:16]
  br label %1087, !dbg !6164                      ; [debug line = 320:16]

; <label>:1087                                    ; preds = %1118, %1086
  %1088 = load i32* %co61, align 4, !dbg !6164    ; [#uses=1 type=i32] [debug line = 320:16]
  %1089 = icmp slt i32 %1088, 24, !dbg !6164      ; [#uses=1 type=i1] [debug line = 320:16]
  br i1 %1089, label %1090, label %1121, !dbg !6164 ; [debug line = 320:16]

; <label>:1090                                    ; preds = %1087
  call void @llvm.dbg.declare(metadata !{i32* %ci62}, metadata !6165), !dbg !6167 ; [debug line = 321:14] [debug variable = ci]
  store i32 0, i32* %ci62, align 4, !dbg !6168    ; [debug line = 321:20]
  br label %1091, !dbg !6168                      ; [debug line = 321:20]

; <label>:1091                                    ; preds = %1114, %1090
  %1092 = load i32* %ci62, align 4, !dbg !6168    ; [#uses=1 type=i32] [debug line = 321:20]
  %1093 = icmp slt i32 %1092, 24, !dbg !6168      ; [#uses=1 type=i1] [debug line = 321:20]
  br i1 %1093, label %1094, label %1117, !dbg !6168 ; [debug line = 321:20]

; <label>:1094                                    ; preds = %1091
  %1095 = load i32* %ci62, align 4, !dbg !6169    ; [#uses=1 type=i32] [debug line = 322:4]
  %1096 = sext i32 %1095 to i64, !dbg !6169       ; [#uses=1 type=i64] [debug line = 322:4]
  %1097 = load i32* %co61, align 4, !dbg !6169    ; [#uses=1 type=i32] [debug line = 322:4]
  %1098 = add nsw i32 %1097, 192, !dbg !6169      ; [#uses=1 type=i32] [debug line = 322:4]
  %1099 = sext i32 %1098 to i64, !dbg !6169       ; [#uses=1 type=i64] [debug line = 322:4]
  %1100 = load [24 x [1 x [1 x float]]]** %4, align 8, !dbg !6169 ; [#uses=1 type=[24 x [1 x [1 x float]]]*] [debug line = 322:4]
  %1101 = getelementptr inbounds [24 x [1 x [1 x float]]]* %1100, i64 %1099, !dbg !6169 ; [#uses=1 type=[24 x [1 x [1 x float]]]*] [debug line = 322:4]
  %1102 = getelementptr inbounds [24 x [1 x [1 x float]]]* %1101, i32 0, i64 %1096, !dbg !6169 ; [#uses=1 type=[1 x [1 x float]]*] [debug line = 322:4]
  %1103 = getelementptr inbounds [1 x [1 x float]]* %1102, i32 0, i64 0, !dbg !6169 ; [#uses=1 type=[1 x float]*] [debug line = 322:4]
  %1104 = getelementptr inbounds [1 x float]* %1103, i32 0, i64 0, !dbg !6169 ; [#uses=1 type=float*] [debug line = 322:4]
  %1105 = load float* %1104, align 4, !dbg !6169  ; [#uses=1 type=float] [debug line = 322:4]
  %1106 = load i32* %ci62, align 4, !dbg !6169    ; [#uses=1 type=i32] [debug line = 322:4]
  %1107 = sext i32 %1106 to i64, !dbg !6169       ; [#uses=1 type=i64] [debug line = 322:4]
  %1108 = load i32* %co61, align 4, !dbg !6169    ; [#uses=1 type=i32] [debug line = 322:4]
  %1109 = sext i32 %1108 to i64, !dbg !6169       ; [#uses=1 type=i64] [debug line = 322:4]
  %1110 = getelementptr inbounds [24 x [24 x [1 x [1 x float]]]]* @weights_24_24_1x1, i32 0, i64 %1109, !dbg !6169 ; [#uses=1 type=[24 x [1 x [1 x float]]]*] [debug line = 322:4]
  %1111 = getelementptr inbounds [24 x [1 x [1 x float]]]* %1110, i32 0, i64 %1107, !dbg !6169 ; [#uses=1 type=[1 x [1 x float]]*] [debug line = 322:4]
  %1112 = getelementptr inbounds [1 x [1 x float]]* %1111, i32 0, i64 0, !dbg !6169 ; [#uses=1 type=[1 x float]*] [debug line = 322:4]
  %1113 = getelementptr inbounds [1 x float]* %1112, i32 0, i64 0, !dbg !6169 ; [#uses=1 type=float*] [debug line = 322:4]
  store float %1105, float* %1113, align 4, !dbg !6169 ; [debug line = 322:4]
  br label %1114, !dbg !6169                      ; [debug line = 322:4]

; <label>:1114                                    ; preds = %1094
  %1115 = load i32* %ci62, align 4, !dbg !6170    ; [#uses=1 type=i32] [debug line = 321:30]
  %1116 = add nsw i32 %1115, 1, !dbg !6170        ; [#uses=1 type=i32] [debug line = 321:30]
  store i32 %1116, i32* %ci62, align 4, !dbg !6170 ; [debug line = 321:30]
  br label %1091, !dbg !6170                      ; [debug line = 321:30]

; <label>:1117                                    ; preds = %1091
  br label %1118, !dbg !6171                      ; [debug line = 322:72]

; <label>:1118                                    ; preds = %1117
  %1119 = load i32* %co61, align 4, !dbg !6172    ; [#uses=1 type=i32] [debug line = 320:27]
  %1120 = add nsw i32 %1119, 1, !dbg !6172        ; [#uses=1 type=i32] [debug line = 320:27]
  store i32 %1120, i32* %co61, align 4, !dbg !6172 ; [debug line = 320:27]
  br label %1087, !dbg !6172                      ; [debug line = 320:27]

; <label>:1121                                    ; preds = %1087
  call void @llvm.dbg.declare(metadata !{i32* %i63}, metadata !6173), !dbg !6175 ; [debug line = 323:10] [debug variable = i]
  store i32 0, i32* %i63, align 4, !dbg !6176     ; [debug line = 323:15]
  br label %1122, !dbg !6176                      ; [debug line = 323:15]

; <label>:1122                                    ; preds = %1135, %1121
  %1123 = load i32* %i63, align 4, !dbg !6176     ; [#uses=1 type=i32] [debug line = 323:15]
  %1124 = icmp slt i32 %1123, 24, !dbg !6176      ; [#uses=1 type=i1] [debug line = 323:15]
  br i1 %1124, label %1125, label %1138, !dbg !6176 ; [debug line = 323:15]

; <label>:1125                                    ; preds = %1122
  %1126 = load i32* %i63, align 4, !dbg !6177     ; [#uses=1 type=i32] [debug line = 324:3]
  %1127 = add nsw i32 %1126, 336, !dbg !6177      ; [#uses=1 type=i32] [debug line = 324:3]
  %1128 = sext i32 %1127 to i64, !dbg !6177       ; [#uses=1 type=i64] [debug line = 324:3]
  %1129 = load float** %7, align 8, !dbg !6177    ; [#uses=1 type=float*] [debug line = 324:3]
  %1130 = getelementptr inbounds float* %1129, i64 %1128, !dbg !6177 ; [#uses=1 type=float*] [debug line = 324:3]
  %1131 = load float* %1130, align 4, !dbg !6177  ; [#uses=1 type=float] [debug line = 324:3]
  %1132 = load i32* %i63, align 4, !dbg !6177     ; [#uses=1 type=i32] [debug line = 324:3]
  %1133 = sext i32 %1132 to i64, !dbg !6177       ; [#uses=1 type=i64] [debug line = 324:3]
  %1134 = getelementptr inbounds [24 x float]* @bias_24, i32 0, i64 %1133, !dbg !6177 ; [#uses=1 type=float*] [debug line = 324:3]
  store float %1131, float* %1134, align 4, !dbg !6177 ; [debug line = 324:3]
  br label %1135, !dbg !6177                      ; [debug line = 324:3]

; <label>:1135                                    ; preds = %1125
  %1136 = load i32* %i63, align 4, !dbg !6178     ; [#uses=1 type=i32] [debug line = 323:25]
  %1137 = add nsw i32 %1136, 1, !dbg !6178        ; [#uses=1 type=i32] [debug line = 323:25]
  store i32 %1137, i32* %i63, align 4, !dbg !6178 ; [debug line = 323:25]
  br label %1122, !dbg !6178                      ; [debug line = 323:25]

; <label>:1138                                    ; preds = %1122
  call void @_Z16subconv_1x1_16_pPA24_A18_A18_fPA24_A1_A1_fPfS2_([24 x [18 x [18 x float]]]* getelementptr inbounds ([1 x [24 x [18 x [18 x float]]]]* @buffer0_1_24_16x16_p, i32 0, i32 0), [24 x [1 x [1 x float]]]* getelementptr inbounds ([24 x [24 x [1 x [1 x float]]]]* @weights_24_24_1x1, i32 0, i32 0), float* getelementptr inbounds ([24 x float]* @bias_24, i32 0, i32 0), [24 x [18 x [18 x float]]]* getelementptr inbounds ([1 x [24 x [18 x [18 x float]]]]* @buffer1_1_24_16x16_p, i32 0, i32 0)), !dbg !6179 ; [debug line = 325:2]
  call void @llvm.dbg.declare(metadata !{i32* %co64}, metadata !6180), !dbg !6182 ; [debug line = 329:10] [debug variable = co]
  store i32 0, i32* %co64, align 4, !dbg !6183    ; [debug line = 329:16]
  br label %1139, !dbg !6183                      ; [debug line = 329:16]

; <label>:1139                                    ; preds = %1182, %1138
  %1140 = load i32* %co64, align 4, !dbg !6183    ; [#uses=1 type=i32] [debug line = 329:16]
  %1141 = icmp slt i32 %1140, 24, !dbg !6183      ; [#uses=1 type=i1] [debug line = 329:16]
  br i1 %1141, label %1142, label %1185, !dbg !6183 ; [debug line = 329:16]

; <label>:1142                                    ; preds = %1139
  call void @llvm.dbg.declare(metadata !{i32* %h65}, metadata !6184), !dbg !6187 ; [debug line = 330:11] [debug variable = h]
  store i32 0, i32* %h65, align 4, !dbg !6188     ; [debug line = 330:14]
  br label %1143, !dbg !6188                      ; [debug line = 330:14]

; <label>:1143                                    ; preds = %1178, %1142
  %1144 = load i32* %h65, align 4, !dbg !6188     ; [#uses=1 type=i32] [debug line = 330:14]
  %1145 = icmp slt i32 %1144, 16, !dbg !6188      ; [#uses=1 type=i1] [debug line = 330:14]
  br i1 %1145, label %1146, label %1181, !dbg !6188 ; [debug line = 330:14]

; <label>:1146                                    ; preds = %1143
  call void @llvm.dbg.declare(metadata !{i32* %w66}, metadata !6189), !dbg !6192 ; [debug line = 331:12] [debug variable = w]
  store i32 0, i32* %w66, align 4, !dbg !6193     ; [debug line = 331:17]
  br label %1147, !dbg !6193                      ; [debug line = 331:17]

; <label>:1147                                    ; preds = %1174, %1146
  %1148 = load i32* %w66, align 4, !dbg !6193     ; [#uses=1 type=i32] [debug line = 331:17]
  %1149 = icmp slt i32 %1148, 16, !dbg !6193      ; [#uses=1 type=i1] [debug line = 331:17]
  br i1 %1149, label %1150, label %1177, !dbg !6193 ; [debug line = 331:17]

; <label>:1150                                    ; preds = %1147
  %1151 = load i32* %w66, align 4, !dbg !6194     ; [#uses=1 type=i32] [debug line = 333:5]
  %1152 = add nsw i32 %1151, 1, !dbg !6194        ; [#uses=1 type=i32] [debug line = 333:5]
  %1153 = sext i32 %1152 to i64, !dbg !6194       ; [#uses=1 type=i64] [debug line = 333:5]
  %1154 = load i32* %h65, align 4, !dbg !6194     ; [#uses=1 type=i32] [debug line = 333:5]
  %1155 = add nsw i32 %1154, 1, !dbg !6194        ; [#uses=1 type=i32] [debug line = 333:5]
  %1156 = sext i32 %1155 to i64, !dbg !6194       ; [#uses=1 type=i64] [debug line = 333:5]
  %1157 = load i32* %co64, align 4, !dbg !6194    ; [#uses=1 type=i32] [debug line = 333:5]
  %1158 = sext i32 %1157 to i64, !dbg !6194       ; [#uses=1 type=i64] [debug line = 333:5]
  %1159 = getelementptr inbounds [48 x [18 x [18 x float]]]* getelementptr inbounds ([1 x [48 x [18 x [18 x float]]]]* @shuffleunit0_1_output_p, i32 0, i64 0), i32 0, i64 %1158, !dbg !6194 ; [#uses=1 type=[18 x [18 x float]]*] [debug line = 333:5]
  %1160 = getelementptr inbounds [18 x [18 x float]]* %1159, i32 0, i64 %1156, !dbg !6194 ; [#uses=1 type=[18 x float]*] [debug line = 333:5]
  %1161 = getelementptr inbounds [18 x float]* %1160, i32 0, i64 %1153, !dbg !6194 ; [#uses=1 type=float*] [debug line = 333:5]
  %1162 = load float* %1161, align 4, !dbg !6194  ; [#uses=1 type=float] [debug line = 333:5]
  %1163 = load i32* %w66, align 4, !dbg !6194     ; [#uses=1 type=i32] [debug line = 333:5]
  %1164 = add nsw i32 %1163, 1, !dbg !6194        ; [#uses=1 type=i32] [debug line = 333:5]
  %1165 = sext i32 %1164 to i64, !dbg !6194       ; [#uses=1 type=i64] [debug line = 333:5]
  %1166 = load i32* %h65, align 4, !dbg !6194     ; [#uses=1 type=i32] [debug line = 333:5]
  %1167 = add nsw i32 %1166, 1, !dbg !6194        ; [#uses=1 type=i32] [debug line = 333:5]
  %1168 = sext i32 %1167 to i64, !dbg !6194       ; [#uses=1 type=i64] [debug line = 333:5]
  %1169 = load i32* %co64, align 4, !dbg !6194    ; [#uses=1 type=i32] [debug line = 333:5]
  %1170 = sext i32 %1169 to i64, !dbg !6194       ; [#uses=1 type=i64] [debug line = 333:5]
  %1171 = getelementptr inbounds [24 x [18 x [18 x float]]]* getelementptr inbounds ([1 x [24 x [18 x [18 x float]]]]* @buffer0_1_24_16x16_p, i32 0, i64 0), i32 0, i64 %1170, !dbg !6194 ; [#uses=1 type=[18 x [18 x float]]*] [debug line = 333:5]
  %1172 = getelementptr inbounds [18 x [18 x float]]* %1171, i32 0, i64 %1168, !dbg !6194 ; [#uses=1 type=[18 x float]*] [debug line = 333:5]
  %1173 = getelementptr inbounds [18 x float]* %1172, i32 0, i64 %1165, !dbg !6194 ; [#uses=1 type=float*] [debug line = 333:5]
  store float %1162, float* %1173, align 4, !dbg !6194 ; [debug line = 333:5]
  br label %1174, !dbg !6196                      ; [debug line = 334:4]

; <label>:1174                                    ; preds = %1150
  %1175 = load i32* %w66, align 4, !dbg !6197     ; [#uses=1 type=i32] [debug line = 331:23]
  %1176 = add nsw i32 %1175, 1, !dbg !6197        ; [#uses=1 type=i32] [debug line = 331:23]
  store i32 %1176, i32* %w66, align 4, !dbg !6197 ; [debug line = 331:23]
  br label %1147, !dbg !6197                      ; [debug line = 331:23]

; <label>:1177                                    ; preds = %1147
  br label %1178, !dbg !6198                      ; [debug line = 335:3]

; <label>:1178                                    ; preds = %1177
  %1179 = load i32* %h65, align 4, !dbg !6199     ; [#uses=1 type=i32] [debug line = 330:20]
  %1180 = add nsw i32 %1179, 1, !dbg !6199        ; [#uses=1 type=i32] [debug line = 330:20]
  store i32 %1180, i32* %h65, align 4, !dbg !6199 ; [debug line = 330:20]
  br label %1143, !dbg !6199                      ; [debug line = 330:20]

; <label>:1181                                    ; preds = %1143
  br label %1182, !dbg !6200                      ; [debug line = 336:2]

; <label>:1182                                    ; preds = %1181
  %1183 = load i32* %co64, align 4, !dbg !6201    ; [#uses=1 type=i32] [debug line = 329:24]
  %1184 = add nsw i32 %1183, 1, !dbg !6201        ; [#uses=1 type=i32] [debug line = 329:24]
  store i32 %1184, i32* %co64, align 4, !dbg !6201 ; [debug line = 329:24]
  br label %1139, !dbg !6201                      ; [debug line = 329:24]

; <label>:1185                                    ; preds = %1139
  call void @_Z12shuffle_24_pPA24_A18_A18_fS2_PA48_S0_([24 x [18 x [18 x float]]]* getelementptr inbounds ([1 x [24 x [18 x [18 x float]]]]* @buffer0_1_24_16x16_p, i32 0, i32 0), [24 x [18 x [18 x float]]]* getelementptr inbounds ([1 x [24 x [18 x [18 x float]]]]* @buffer1_1_24_16x16_p, i32 0, i32 0), [48 x [18 x [18 x float]]]* getelementptr inbounds ([1 x [48 x [18 x [18 x float]]]]* @shuffleunit0_2_output_p, i32 0, i32 0)), !dbg !6202 ; [debug line = 337:2]
  call void @llvm.dbg.declare(metadata !{i32* %co67}, metadata !6203), !dbg !6205 ; [debug line = 344:13] [debug variable = co]
  store i32 0, i32* %co67, align 4, !dbg !6206    ; [debug line = 344:19]
  br label %1186, !dbg !6206                      ; [debug line = 344:19]

; <label>:1186                                    ; preds = %1236, %1185
  %1187 = load i32* %co67, align 4, !dbg !6206    ; [#uses=1 type=i32] [debug line = 344:19]
  %1188 = icmp slt i32 %1187, 24, !dbg !6206      ; [#uses=1 type=i1] [debug line = 344:19]
  br i1 %1188, label %1189, label %1239, !dbg !6206 ; [debug line = 344:19]

; <label>:1189                                    ; preds = %1186
  call void @llvm.dbg.declare(metadata !{i32* %ci68}, metadata !6207), !dbg !6209 ; [debug line = 345:17] [debug variable = ci]
  store i32 0, i32* %ci68, align 4, !dbg !6210    ; [debug line = 345:23]
  br label %1190, !dbg !6210                      ; [debug line = 345:23]

; <label>:1190                                    ; preds = %1232, %1189
  %1191 = load i32* %ci68, align 4, !dbg !6210    ; [#uses=1 type=i32] [debug line = 345:23]
  %1192 = icmp slt i32 %1191, 24, !dbg !6210      ; [#uses=1 type=i1] [debug line = 345:23]
  br i1 %1192, label %1193, label %1235, !dbg !6210 ; [debug line = 345:23]

; <label>:1193                                    ; preds = %1190
  call void @llvm.dbg.declare(metadata !{i32* %i69}, metadata !6211), !dbg !6213 ; [debug line = 346:12] [debug variable = i]
  store i32 0, i32* %i69, align 4, !dbg !6214     ; [debug line = 346:17]
  br label %1194, !dbg !6214                      ; [debug line = 346:17]

; <label>:1194                                    ; preds = %1228, %1193
  %1195 = load i32* %i69, align 4, !dbg !6214     ; [#uses=1 type=i32] [debug line = 346:17]
  %1196 = icmp slt i32 %1195, 4, !dbg !6214       ; [#uses=1 type=i1] [debug line = 346:17]
  br i1 %1196, label %1197, label %1231, !dbg !6214 ; [debug line = 346:17]

; <label>:1197                                    ; preds = %1194
  %1198 = load i32* %ci68, align 4, !dbg !6215    ; [#uses=1 type=i32] [debug line = 347:14]
  %1199 = sext i32 %1198 to i64, !dbg !6215       ; [#uses=1 type=i64] [debug line = 347:14]
  %1200 = load i32* %co67, align 4, !dbg !6215    ; [#uses=1 type=i32] [debug line = 347:14]
  %1201 = add nsw i32 %1200, 216, !dbg !6215      ; [#uses=1 type=i32] [debug line = 347:14]
  %1202 = load i32* %i69, align 4, !dbg !6215     ; [#uses=1 type=i32] [debug line = 347:14]
  %1203 = mul nsw i32 24, %1202, !dbg !6215       ; [#uses=1 type=i32] [debug line = 347:14]
  %1204 = add nsw i32 %1201, %1203, !dbg !6215    ; [#uses=1 type=i32] [debug line = 347:14]
  %1205 = sext i32 %1204 to i64, !dbg !6215       ; [#uses=1 type=i64] [debug line = 347:14]
  %1206 = load [24 x [1 x [1 x float]]]** %4, align 8, !dbg !6215 ; [#uses=1 type=[24 x [1 x [1 x float]]]*] [debug line = 347:14]
  %1207 = getelementptr inbounds [24 x [1 x [1 x float]]]* %1206, i64 %1205, !dbg !6215 ; [#uses=1 type=[24 x [1 x [1 x float]]]*] [debug line = 347:14]
  %1208 = getelementptr inbounds [24 x [1 x [1 x float]]]* %1207, i32 0, i64 %1199, !dbg !6215 ; [#uses=1 type=[1 x [1 x float]]*] [debug line = 347:14]
  %1209 = getelementptr inbounds [1 x [1 x float]]* %1208, i32 0, i64 0, !dbg !6215 ; [#uses=1 type=[1 x float]*] [debug line = 347:14]
  %1210 = getelementptr inbounds [1 x float]* %1209, i32 0, i64 0, !dbg !6215 ; [#uses=1 type=float*] [debug line = 347:14]
  %1211 = load float* %1210, align 4, !dbg !6215  ; [#uses=1 type=float] [debug line = 347:14]
  %1212 = load i32* %ci68, align 4, !dbg !6215    ; [#uses=1 type=i32] [debug line = 347:14]
  %1213 = load i32* %co67, align 4, !dbg !6215    ; [#uses=1 type=i32] [debug line = 347:14]
  %1214 = srem i32 %1213, 2, !dbg !6215           ; [#uses=1 type=i32] [debug line = 347:14]
  %1215 = mul nsw i32 24, %1214, !dbg !6215       ; [#uses=1 type=i32] [debug line = 347:14]
  %1216 = add nsw i32 %1212, %1215, !dbg !6215    ; [#uses=1 type=i32] [debug line = 347:14]
  %1217 = sext i32 %1216 to i64, !dbg !6215       ; [#uses=1 type=i64] [debug line = 347:14]
  %1218 = load i32* %co67, align 4, !dbg !6215    ; [#uses=1 type=i32] [debug line = 347:14]
  %1219 = sdiv i32 %1218, 2, !dbg !6215           ; [#uses=1 type=i32] [debug line = 347:14]
  %1220 = load i32* %i69, align 4, !dbg !6215     ; [#uses=1 type=i32] [debug line = 347:14]
  %1221 = mul nsw i32 %1220, 12, !dbg !6215       ; [#uses=1 type=i32] [debug line = 347:14]
  %1222 = add nsw i32 %1219, %1221, !dbg !6215    ; [#uses=1 type=i32] [debug line = 347:14]
  %1223 = sext i32 %1222 to i64, !dbg !6215       ; [#uses=1 type=i64] [debug line = 347:14]
  %1224 = getelementptr inbounds [48 x [48 x [1 x [1 x float]]]]* @weights_48_48_1x1, i32 0, i64 %1223, !dbg !6215 ; [#uses=1 type=[48 x [1 x [1 x float]]]*] [debug line = 347:14]
  %1225 = getelementptr inbounds [48 x [1 x [1 x float]]]* %1224, i32 0, i64 %1217, !dbg !6215 ; [#uses=1 type=[1 x [1 x float]]*] [debug line = 347:14]
  %1226 = getelementptr inbounds [1 x [1 x float]]* %1225, i32 0, i64 0, !dbg !6215 ; [#uses=1 type=[1 x float]*] [debug line = 347:14]
  %1227 = getelementptr inbounds [1 x float]* %1226, i32 0, i64 0, !dbg !6215 ; [#uses=1 type=float*] [debug line = 347:14]
  store float %1211, float* %1227, align 4, !dbg !6215 ; [debug line = 347:14]
  br label %1228, !dbg !6215                      ; [debug line = 347:14]

; <label>:1228                                    ; preds = %1197
  %1229 = load i32* %i69, align 4, !dbg !6216     ; [#uses=1 type=i32] [debug line = 346:26]
  %1230 = add nsw i32 %1229, 1, !dbg !6216        ; [#uses=1 type=i32] [debug line = 346:26]
  store i32 %1230, i32* %i69, align 4, !dbg !6216 ; [debug line = 346:26]
  br label %1194, !dbg !6216                      ; [debug line = 346:26]

; <label>:1231                                    ; preds = %1194
  br label %1232, !dbg !6217                      ; [debug line = 347:111]

; <label>:1232                                    ; preds = %1231
  %1233 = load i32* %ci68, align 4, !dbg !6218    ; [#uses=1 type=i32] [debug line = 345:33]
  %1234 = add nsw i32 %1233, 1, !dbg !6218        ; [#uses=1 type=i32] [debug line = 345:33]
  store i32 %1234, i32* %ci68, align 4, !dbg !6218 ; [debug line = 345:33]
  br label %1190, !dbg !6218                      ; [debug line = 345:33]

; <label>:1235                                    ; preds = %1190
  br label %1236, !dbg !6219                      ; [debug line = 347:111]

; <label>:1236                                    ; preds = %1235
  %1237 = load i32* %co67, align 4, !dbg !6220    ; [#uses=1 type=i32] [debug line = 344:30]
  %1238 = add nsw i32 %1237, 1, !dbg !6220        ; [#uses=1 type=i32] [debug line = 344:30]
  store i32 %1238, i32* %co67, align 4, !dbg !6220 ; [debug line = 344:30]
  br label %1186, !dbg !6220                      ; [debug line = 344:30]

; <label>:1239                                    ; preds = %1186
  call void @llvm.dbg.declare(metadata !{i32* %i70}, metadata !6221), !dbg !6223 ; [debug line = 349:13] [debug variable = i]
  store i32 0, i32* %i70, align 4, !dbg !6224     ; [debug line = 349:18]
  br label %1240, !dbg !6224                      ; [debug line = 349:18]

; <label>:1240                                    ; preds = %1267, %1239
  %1241 = load i32* %i70, align 4, !dbg !6224     ; [#uses=1 type=i32] [debug line = 349:18]
  %1242 = icmp slt i32 %1241, 24, !dbg !6224      ; [#uses=1 type=i1] [debug line = 349:18]
  br i1 %1242, label %1243, label %1270, !dbg !6224 ; [debug line = 349:18]

; <label>:1243                                    ; preds = %1240
  call void @llvm.dbg.declare(metadata !{i32* %k}, metadata !6225), !dbg !6227 ; [debug line = 350:11] [debug variable = k]
  store i32 0, i32* %k, align 4, !dbg !6228       ; [debug line = 350:16]
  br label %1244, !dbg !6228                      ; [debug line = 350:16]

; <label>:1244                                    ; preds = %1263, %1243
  %1245 = load i32* %k, align 4, !dbg !6228       ; [#uses=1 type=i32] [debug line = 350:16]
  %1246 = icmp slt i32 %1245, 2, !dbg !6228       ; [#uses=1 type=i1] [debug line = 350:16]
  br i1 %1246, label %1247, label %1266, !dbg !6228 ; [debug line = 350:16]

; <label>:1247                                    ; preds = %1244
  %1248 = load i32* %i70, align 4, !dbg !6229     ; [#uses=1 type=i32] [debug line = 351:10]
  %1249 = add nsw i32 %1248, 360, !dbg !6229      ; [#uses=1 type=i32] [debug line = 351:10]
  %1250 = load i32* %k, align 4, !dbg !6229       ; [#uses=1 type=i32] [debug line = 351:10]
  %1251 = mul nsw i32 %1250, 24, !dbg !6229       ; [#uses=1 type=i32] [debug line = 351:10]
  %1252 = add nsw i32 %1249, %1251, !dbg !6229    ; [#uses=1 type=i32] [debug line = 351:10]
  %1253 = sext i32 %1252 to i64, !dbg !6229       ; [#uses=1 type=i64] [debug line = 351:10]
  %1254 = load float** %7, align 8, !dbg !6229    ; [#uses=1 type=float*] [debug line = 351:10]
  %1255 = getelementptr inbounds float* %1254, i64 %1253, !dbg !6229 ; [#uses=1 type=float*] [debug line = 351:10]
  %1256 = load float* %1255, align 4, !dbg !6229  ; [#uses=1 type=float] [debug line = 351:10]
  %1257 = load i32* %i70, align 4, !dbg !6229     ; [#uses=1 type=i32] [debug line = 351:10]
  %1258 = load i32* %k, align 4, !dbg !6229       ; [#uses=1 type=i32] [debug line = 351:10]
  %1259 = mul nsw i32 %1258, 24, !dbg !6229       ; [#uses=1 type=i32] [debug line = 351:10]
  %1260 = add nsw i32 %1257, %1259, !dbg !6229    ; [#uses=1 type=i32] [debug line = 351:10]
  %1261 = sext i32 %1260 to i64, !dbg !6229       ; [#uses=1 type=i64] [debug line = 351:10]
  %1262 = getelementptr inbounds [48 x float]* @bias_48, i32 0, i64 %1261, !dbg !6229 ; [#uses=1 type=float*] [debug line = 351:10]
  store float %1256, float* %1262, align 4, !dbg !6229 ; [debug line = 351:10]
  br label %1263, !dbg !6229                      ; [debug line = 351:10]

; <label>:1263                                    ; preds = %1247
  %1264 = load i32* %k, align 4, !dbg !6230       ; [#uses=1 type=i32] [debug line = 350:23]
  %1265 = add nsw i32 %1264, 1, !dbg !6230        ; [#uses=1 type=i32] [debug line = 350:23]
  store i32 %1265, i32* %k, align 4, !dbg !6230   ; [debug line = 350:23]
  br label %1244, !dbg !6230                      ; [debug line = 350:23]

; <label>:1266                                    ; preds = %1244
  br label %1267, !dbg !6231                      ; [debug line = 351:45]

; <label>:1267                                    ; preds = %1266
  %1268 = load i32* %i70, align 4, !dbg !6232     ; [#uses=1 type=i32] [debug line = 349:26]
  %1269 = add nsw i32 %1268, 1, !dbg !6232        ; [#uses=1 type=i32] [debug line = 349:26]
  store i32 %1269, i32* %i70, align 4, !dbg !6232 ; [debug line = 349:26]
  br label %1240, !dbg !6232                      ; [debug line = 349:26]

; <label>:1270                                    ; preds = %1240
  call void @_Z17subconv_1x1_16p_pPA48_A18_A18_fPA48_A1_A1_fPfS2_([48 x [18 x [18 x float]]]* getelementptr inbounds ([1 x [48 x [18 x [18 x float]]]]* @shuffleunit0_2_output_p, i32 0, i32 0), [48 x [1 x [1 x float]]]* getelementptr inbounds ([48 x [48 x [1 x [1 x float]]]]* @weights_48_48_1x1, i32 0, i32 0), float* getelementptr inbounds ([48 x float]* @bias_48, i32 0, i32 0), [48 x [18 x [18 x float]]]* getelementptr inbounds ([1 x [48 x [18 x [18 x float]]]]* @ShuffleConvs_1_DownsampleUnit__conv1r_output_p, i32 0, i32 0)), !dbg !6233 ; [debug line = 352:2]
  call void @llvm.dbg.declare(metadata !{i32* %co71}, metadata !6234), !dbg !6236 ; [debug line = 354:13] [debug variable = co]
  store i32 0, i32* %co71, align 4, !dbg !6237    ; [debug line = 354:19]
  br label %1271, !dbg !6237                      ; [debug line = 354:19]

; <label>:1271                                    ; preds = %1328, %1270
  %1272 = load i32* %co71, align 4, !dbg !6237    ; [#uses=1 type=i32] [debug line = 354:19]
  %1273 = icmp slt i32 %1272, 24, !dbg !6237      ; [#uses=1 type=i1] [debug line = 354:19]
  br i1 %1273, label %1274, label %1331, !dbg !6237 ; [debug line = 354:19]

; <label>:1274                                    ; preds = %1271
  call void @llvm.dbg.declare(metadata !{i32* %w72}, metadata !6238), !dbg !6240 ; [debug line = 355:17] [debug variable = w]
  store i32 0, i32* %w72, align 4, !dbg !6241     ; [debug line = 355:22]
  br label %1275, !dbg !6241                      ; [debug line = 355:22]

; <label>:1275                                    ; preds = %1324, %1274
  %1276 = load i32* %w72, align 4, !dbg !6241     ; [#uses=1 type=i32] [debug line = 355:22]
  %1277 = icmp slt i32 %1276, 3, !dbg !6241       ; [#uses=1 type=i1] [debug line = 355:22]
  br i1 %1277, label %1278, label %1327, !dbg !6241 ; [debug line = 355:22]

; <label>:1278                                    ; preds = %1275
  call void @llvm.dbg.declare(metadata !{i32* %h73}, metadata !6242), !dbg !6244 ; [debug line = 356:21] [debug variable = h]
  store i32 0, i32* %h73, align 4, !dbg !6245     ; [debug line = 356:26]
  br label %1279, !dbg !6245                      ; [debug line = 356:26]

; <label>:1279                                    ; preds = %1320, %1278
  %1280 = load i32* %h73, align 4, !dbg !6245     ; [#uses=1 type=i32] [debug line = 356:26]
  %1281 = icmp slt i32 %1280, 3, !dbg !6245       ; [#uses=1 type=i1] [debug line = 356:26]
  br i1 %1281, label %1282, label %1323, !dbg !6245 ; [debug line = 356:26]

; <label>:1282                                    ; preds = %1279
  call void @llvm.dbg.declare(metadata !{i32* %i74}, metadata !6246), !dbg !6248 ; [debug line = 357:13] [debug variable = i]
  store i32 0, i32* %i74, align 4, !dbg !6249     ; [debug line = 357:18]
  br label %1283, !dbg !6249                      ; [debug line = 357:18]

; <label>:1283                                    ; preds = %1316, %1282
  %1284 = load i32* %i74, align 4, !dbg !6249     ; [#uses=1 type=i32] [debug line = 357:18]
  %1285 = icmp slt i32 %1284, 2, !dbg !6249       ; [#uses=1 type=i1] [debug line = 357:18]
  br i1 %1285, label %1286, label %1319, !dbg !6249 ; [debug line = 357:18]

; <label>:1286                                    ; preds = %1283
  %1287 = load i32* %h73, align 4, !dbg !6250     ; [#uses=1 type=i32] [debug line = 358:18]
  %1288 = sext i32 %1287 to i64, !dbg !6250       ; [#uses=1 type=i64] [debug line = 358:18]
  %1289 = load i32* %w72, align 4, !dbg !6250     ; [#uses=1 type=i32] [debug line = 358:18]
  %1290 = sext i32 %1289 to i64, !dbg !6250       ; [#uses=1 type=i64] [debug line = 358:18]
  %1291 = load i32* %co71, align 4, !dbg !6250    ; [#uses=1 type=i32] [debug line = 358:18]
  %1292 = add nsw i32 %1291, 120, !dbg !6250      ; [#uses=1 type=i32] [debug line = 358:18]
  %1293 = load i32* %i74, align 4, !dbg !6250     ; [#uses=1 type=i32] [debug line = 358:18]
  %1294 = mul nsw i32 %1293, 24, !dbg !6250       ; [#uses=1 type=i32] [debug line = 358:18]
  %1295 = add nsw i32 %1292, %1294, !dbg !6250    ; [#uses=1 type=i32] [debug line = 358:18]
  %1296 = sext i32 %1295 to i64, !dbg !6250       ; [#uses=1 type=i64] [debug line = 358:18]
  %1297 = load [1 x [3 x [3 x float]]]** %3, align 8, !dbg !6250 ; [#uses=1 type=[1 x [3 x [3 x float]]]*] [debug line = 358:18]
  %1298 = getelementptr inbounds [1 x [3 x [3 x float]]]* %1297, i64 %1296, !dbg !6250 ; [#uses=1 type=[1 x [3 x [3 x float]]]*] [debug line = 358:18]
  %1299 = getelementptr inbounds [1 x [3 x [3 x float]]]* %1298, i32 0, i64 0, !dbg !6250 ; [#uses=1 type=[3 x [3 x float]]*] [debug line = 358:18]
  %1300 = getelementptr inbounds [3 x [3 x float]]* %1299, i32 0, i64 %1290, !dbg !6250 ; [#uses=1 type=[3 x float]*] [debug line = 358:18]
  %1301 = getelementptr inbounds [3 x float]* %1300, i32 0, i64 %1288, !dbg !6250 ; [#uses=1 type=float*] [debug line = 358:18]
  %1302 = load float* %1301, align 4, !dbg !6250  ; [#uses=1 type=float] [debug line = 358:18]
  %1303 = load i32* %h73, align 4, !dbg !6250     ; [#uses=1 type=i32] [debug line = 358:18]
  %1304 = sext i32 %1303 to i64, !dbg !6250       ; [#uses=1 type=i64] [debug line = 358:18]
  %1305 = load i32* %w72, align 4, !dbg !6250     ; [#uses=1 type=i32] [debug line = 358:18]
  %1306 = sext i32 %1305 to i64, !dbg !6250       ; [#uses=1 type=i64] [debug line = 358:18]
  %1307 = load i32* %co71, align 4, !dbg !6250    ; [#uses=1 type=i32] [debug line = 358:18]
  %1308 = load i32* %i74, align 4, !dbg !6250     ; [#uses=1 type=i32] [debug line = 358:18]
  %1309 = mul nsw i32 %1308, 24, !dbg !6250       ; [#uses=1 type=i32] [debug line = 358:18]
  %1310 = add nsw i32 %1307, %1309, !dbg !6250    ; [#uses=1 type=i32] [debug line = 358:18]
  %1311 = sext i32 %1310 to i64, !dbg !6250       ; [#uses=1 type=i64] [debug line = 358:18]
  %1312 = getelementptr inbounds [48 x [1 x [3 x [3 x float]]]]* @weights_48_1_3x3, i32 0, i64 %1311, !dbg !6250 ; [#uses=1 type=[1 x [3 x [3 x float]]]*] [debug line = 358:18]
  %1313 = getelementptr inbounds [1 x [3 x [3 x float]]]* %1312, i32 0, i64 0, !dbg !6250 ; [#uses=1 type=[3 x [3 x float]]*] [debug line = 358:18]
  %1314 = getelementptr inbounds [3 x [3 x float]]* %1313, i32 0, i64 %1306, !dbg !6250 ; [#uses=1 type=[3 x float]*] [debug line = 358:18]
  %1315 = getelementptr inbounds [3 x float]* %1314, i32 0, i64 %1304, !dbg !6250 ; [#uses=1 type=float*] [debug line = 358:18]
  store float %1302, float* %1315, align 4, !dbg !6250 ; [debug line = 358:18]
  br label %1316, !dbg !6250                      ; [debug line = 358:18]

; <label>:1316                                    ; preds = %1286
  %1317 = load i32* %i74, align 4, !dbg !6251     ; [#uses=1 type=i32] [debug line = 357:27]
  %1318 = add nsw i32 %1317, 1, !dbg !6251        ; [#uses=1 type=i32] [debug line = 357:27]
  store i32 %1318, i32* %i74, align 4, !dbg !6251 ; [debug line = 357:27]
  br label %1283, !dbg !6251                      ; [debug line = 357:27]

; <label>:1319                                    ; preds = %1283
  br label %1320, !dbg !6252                      ; [debug line = 358:96]

; <label>:1320                                    ; preds = %1319
  %1321 = load i32* %h73, align 4, !dbg !6253     ; [#uses=1 type=i32] [debug line = 356:33]
  %1322 = add nsw i32 %1321, 1, !dbg !6253        ; [#uses=1 type=i32] [debug line = 356:33]
  store i32 %1322, i32* %h73, align 4, !dbg !6253 ; [debug line = 356:33]
  br label %1279, !dbg !6253                      ; [debug line = 356:33]

; <label>:1323                                    ; preds = %1279
  br label %1324, !dbg !6254                      ; [debug line = 358:96]

; <label>:1324                                    ; preds = %1323
  %1325 = load i32* %w72, align 4, !dbg !6255     ; [#uses=1 type=i32] [debug line = 355:30]
  %1326 = add nsw i32 %1325, 1, !dbg !6255        ; [#uses=1 type=i32] [debug line = 355:30]
  store i32 %1326, i32* %w72, align 4, !dbg !6255 ; [debug line = 355:30]
  br label %1275, !dbg !6255                      ; [debug line = 355:30]

; <label>:1327                                    ; preds = %1275
  br label %1328, !dbg !6256                      ; [debug line = 358:96]

; <label>:1328                                    ; preds = %1327
  %1329 = load i32* %co71, align 4, !dbg !6257    ; [#uses=1 type=i32] [debug line = 354:26]
  %1330 = add nsw i32 %1329, 1, !dbg !6257        ; [#uses=1 type=i32] [debug line = 354:26]
  store i32 %1330, i32* %co71, align 4, !dbg !6257 ; [debug line = 354:26]
  br label %1271, !dbg !6257                      ; [debug line = 354:26]

; <label>:1331                                    ; preds = %1271
  call void @llvm.dbg.declare(metadata !{i32* %i75}, metadata !6258), !dbg !6260 ; [debug line = 359:13] [debug variable = i]
  store i32 0, i32* %i75, align 4, !dbg !6261     ; [debug line = 359:18]
  br label %1332, !dbg !6261                      ; [debug line = 359:18]

; <label>:1332                                    ; preds = %1359, %1331
  %1333 = load i32* %i75, align 4, !dbg !6261     ; [#uses=1 type=i32] [debug line = 359:18]
  %1334 = icmp slt i32 %1333, 24, !dbg !6261      ; [#uses=1 type=i1] [debug line = 359:18]
  br i1 %1334, label %1335, label %1362, !dbg !6261 ; [debug line = 359:18]

; <label>:1335                                    ; preds = %1332
  call void @llvm.dbg.declare(metadata !{i32* %k76}, metadata !6262), !dbg !6264 ; [debug line = 360:11] [debug variable = k]
  store i32 0, i32* %k76, align 4, !dbg !6265     ; [debug line = 360:16]
  br label %1336, !dbg !6265                      ; [debug line = 360:16]

; <label>:1336                                    ; preds = %1355, %1335
  %1337 = load i32* %k76, align 4, !dbg !6265     ; [#uses=1 type=i32] [debug line = 360:16]
  %1338 = icmp slt i32 %1337, 2, !dbg !6265       ; [#uses=1 type=i1] [debug line = 360:16]
  br i1 %1338, label %1339, label %1358, !dbg !6265 ; [debug line = 360:16]

; <label>:1339                                    ; preds = %1336
  %1340 = load i32* %i75, align 4, !dbg !6266     ; [#uses=1 type=i32] [debug line = 361:10]
  %1341 = add nsw i32 %1340, 408, !dbg !6266      ; [#uses=1 type=i32] [debug line = 361:10]
  %1342 = load i32* %k76, align 4, !dbg !6266     ; [#uses=1 type=i32] [debug line = 361:10]
  %1343 = mul nsw i32 %1342, 24, !dbg !6266       ; [#uses=1 type=i32] [debug line = 361:10]
  %1344 = add nsw i32 %1341, %1343, !dbg !6266    ; [#uses=1 type=i32] [debug line = 361:10]
  %1345 = sext i32 %1344 to i64, !dbg !6266       ; [#uses=1 type=i64] [debug line = 361:10]
  %1346 = load float** %7, align 8, !dbg !6266    ; [#uses=1 type=float*] [debug line = 361:10]
  %1347 = getelementptr inbounds float* %1346, i64 %1345, !dbg !6266 ; [#uses=1 type=float*] [debug line = 361:10]
  %1348 = load float* %1347, align 4, !dbg !6266  ; [#uses=1 type=float] [debug line = 361:10]
  %1349 = load i32* %i75, align 4, !dbg !6266     ; [#uses=1 type=i32] [debug line = 361:10]
  %1350 = load i32* %k76, align 4, !dbg !6266     ; [#uses=1 type=i32] [debug line = 361:10]
  %1351 = mul nsw i32 %1350, 24, !dbg !6266       ; [#uses=1 type=i32] [debug line = 361:10]
  %1352 = add nsw i32 %1349, %1351, !dbg !6266    ; [#uses=1 type=i32] [debug line = 361:10]
  %1353 = sext i32 %1352 to i64, !dbg !6266       ; [#uses=1 type=i64] [debug line = 361:10]
  %1354 = getelementptr inbounds [48 x float]* @bias_48, i32 0, i64 %1353, !dbg !6266 ; [#uses=1 type=float*] [debug line = 361:10]
  store float %1348, float* %1354, align 4, !dbg !6266 ; [debug line = 361:10]
  br label %1355, !dbg !6266                      ; [debug line = 361:10]

; <label>:1355                                    ; preds = %1339
  %1356 = load i32* %k76, align 4, !dbg !6267     ; [#uses=1 type=i32] [debug line = 360:23]
  %1357 = add nsw i32 %1356, 1, !dbg !6267        ; [#uses=1 type=i32] [debug line = 360:23]
  store i32 %1357, i32* %k76, align 4, !dbg !6267 ; [debug line = 360:23]
  br label %1336, !dbg !6267                      ; [debug line = 360:23]

; <label>:1358                                    ; preds = %1336
  br label %1359, !dbg !6268                      ; [debug line = 361:45]

; <label>:1359                                    ; preds = %1358
  %1360 = load i32* %i75, align 4, !dbg !6269     ; [#uses=1 type=i32] [debug line = 359:26]
  %1361 = add nsw i32 %1360, 1, !dbg !6269        ; [#uses=1 type=i32] [debug line = 359:26]
  store i32 %1361, i32* %i75, align 4, !dbg !6269 ; [debug line = 359:26]
  br label %1332, !dbg !6269                      ; [debug line = 359:26]

; <label>:1362                                    ; preds = %1332
  call void @_Z31subconv_3x3_16_stride_no_relu_pPA48_A18_A18_fPA1_A3_A3_fPfPA48_A10_A10_f([48 x [18 x [18 x float]]]* getelementptr inbounds ([1 x [48 x [18 x [18 x float]]]]* @ShuffleConvs_1_DownsampleUnit__conv1r_output_p, i32 0, i32 0), [1 x [3 x [3 x float]]]* getelementptr inbounds ([48 x [1 x [3 x [3 x float]]]]* @weights_48_1_3x3, i32 0, i32 0), float* getelementptr inbounds ([48 x float]* @bias_48, i32 0, i32 0), [48 x [10 x [10 x float]]]* getelementptr inbounds ([1 x [48 x [10 x [10 x float]]]]* @buffer0_1_48_8x8_p, i32 0, i32 0)), !dbg !6270 ; [debug line = 362:5]
  call void @llvm.dbg.declare(metadata !{i32* %co77}, metadata !6271), !dbg !6273 ; [debug line = 366:13] [debug variable = co]
  store i32 0, i32* %co77, align 4, !dbg !6274    ; [debug line = 366:19]
  br label %1363, !dbg !6274                      ; [debug line = 366:19]

; <label>:1363                                    ; preds = %1413, %1362
  %1364 = load i32* %co77, align 4, !dbg !6274    ; [#uses=1 type=i32] [debug line = 366:19]
  %1365 = icmp slt i32 %1364, 24, !dbg !6274      ; [#uses=1 type=i1] [debug line = 366:19]
  br i1 %1365, label %1366, label %1416, !dbg !6274 ; [debug line = 366:19]

; <label>:1366                                    ; preds = %1363
  call void @llvm.dbg.declare(metadata !{i32* %ci78}, metadata !6275), !dbg !6277 ; [debug line = 367:17] [debug variable = ci]
  store i32 0, i32* %ci78, align 4, !dbg !6278    ; [debug line = 367:23]
  br label %1367, !dbg !6278                      ; [debug line = 367:23]

; <label>:1367                                    ; preds = %1409, %1366
  %1368 = load i32* %ci78, align 4, !dbg !6278    ; [#uses=1 type=i32] [debug line = 367:23]
  %1369 = icmp slt i32 %1368, 24, !dbg !6278      ; [#uses=1 type=i1] [debug line = 367:23]
  br i1 %1369, label %1370, label %1412, !dbg !6278 ; [debug line = 367:23]

; <label>:1370                                    ; preds = %1367
  call void @llvm.dbg.declare(metadata !{i32* %i79}, metadata !6279), !dbg !6281 ; [debug line = 368:12] [debug variable = i]
  store i32 0, i32* %i79, align 4, !dbg !6282     ; [debug line = 368:17]
  br label %1371, !dbg !6282                      ; [debug line = 368:17]

; <label>:1371                                    ; preds = %1405, %1370
  %1372 = load i32* %i79, align 4, !dbg !6282     ; [#uses=1 type=i32] [debug line = 368:17]
  %1373 = icmp slt i32 %1372, 4, !dbg !6282       ; [#uses=1 type=i1] [debug line = 368:17]
  br i1 %1373, label %1374, label %1408, !dbg !6282 ; [debug line = 368:17]

; <label>:1374                                    ; preds = %1371
  %1375 = load i32* %ci78, align 4, !dbg !6283    ; [#uses=1 type=i32] [debug line = 369:14]
  %1376 = sext i32 %1375 to i64, !dbg !6283       ; [#uses=1 type=i64] [debug line = 369:14]
  %1377 = load i32* %co77, align 4, !dbg !6283    ; [#uses=1 type=i32] [debug line = 369:14]
  %1378 = add nsw i32 %1377, 312, !dbg !6283      ; [#uses=1 type=i32] [debug line = 369:14]
  %1379 = load i32* %i79, align 4, !dbg !6283     ; [#uses=1 type=i32] [debug line = 369:14]
  %1380 = mul nsw i32 24, %1379, !dbg !6283       ; [#uses=1 type=i32] [debug line = 369:14]
  %1381 = add nsw i32 %1378, %1380, !dbg !6283    ; [#uses=1 type=i32] [debug line = 369:14]
  %1382 = sext i32 %1381 to i64, !dbg !6283       ; [#uses=1 type=i64] [debug line = 369:14]
  %1383 = load [24 x [1 x [1 x float]]]** %4, align 8, !dbg !6283 ; [#uses=1 type=[24 x [1 x [1 x float]]]*] [debug line = 369:14]
  %1384 = getelementptr inbounds [24 x [1 x [1 x float]]]* %1383, i64 %1382, !dbg !6283 ; [#uses=1 type=[24 x [1 x [1 x float]]]*] [debug line = 369:14]
  %1385 = getelementptr inbounds [24 x [1 x [1 x float]]]* %1384, i32 0, i64 %1376, !dbg !6283 ; [#uses=1 type=[1 x [1 x float]]*] [debug line = 369:14]
  %1386 = getelementptr inbounds [1 x [1 x float]]* %1385, i32 0, i64 0, !dbg !6283 ; [#uses=1 type=[1 x float]*] [debug line = 369:14]
  %1387 = getelementptr inbounds [1 x float]* %1386, i32 0, i64 0, !dbg !6283 ; [#uses=1 type=float*] [debug line = 369:14]
  %1388 = load float* %1387, align 4, !dbg !6283  ; [#uses=1 type=float] [debug line = 369:14]
  %1389 = load i32* %ci78, align 4, !dbg !6283    ; [#uses=1 type=i32] [debug line = 369:14]
  %1390 = load i32* %co77, align 4, !dbg !6283    ; [#uses=1 type=i32] [debug line = 369:14]
  %1391 = srem i32 %1390, 2, !dbg !6283           ; [#uses=1 type=i32] [debug line = 369:14]
  %1392 = mul nsw i32 24, %1391, !dbg !6283       ; [#uses=1 type=i32] [debug line = 369:14]
  %1393 = add nsw i32 %1389, %1392, !dbg !6283    ; [#uses=1 type=i32] [debug line = 369:14]
  %1394 = sext i32 %1393 to i64, !dbg !6283       ; [#uses=1 type=i64] [debug line = 369:14]
  %1395 = load i32* %co77, align 4, !dbg !6283    ; [#uses=1 type=i32] [debug line = 369:14]
  %1396 = sdiv i32 %1395, 2, !dbg !6283           ; [#uses=1 type=i32] [debug line = 369:14]
  %1397 = load i32* %i79, align 4, !dbg !6283     ; [#uses=1 type=i32] [debug line = 369:14]
  %1398 = mul nsw i32 %1397, 12, !dbg !6283       ; [#uses=1 type=i32] [debug line = 369:14]
  %1399 = add nsw i32 %1396, %1398, !dbg !6283    ; [#uses=1 type=i32] [debug line = 369:14]
  %1400 = sext i32 %1399 to i64, !dbg !6283       ; [#uses=1 type=i64] [debug line = 369:14]
  %1401 = getelementptr inbounds [48 x [48 x [1 x [1 x float]]]]* @weights_48_48_1x1, i32 0, i64 %1400, !dbg !6283 ; [#uses=1 type=[48 x [1 x [1 x float]]]*] [debug line = 369:14]
  %1402 = getelementptr inbounds [48 x [1 x [1 x float]]]* %1401, i32 0, i64 %1394, !dbg !6283 ; [#uses=1 type=[1 x [1 x float]]*] [debug line = 369:14]
  %1403 = getelementptr inbounds [1 x [1 x float]]* %1402, i32 0, i64 0, !dbg !6283 ; [#uses=1 type=[1 x float]*] [debug line = 369:14]
  %1404 = getelementptr inbounds [1 x float]* %1403, i32 0, i64 0, !dbg !6283 ; [#uses=1 type=float*] [debug line = 369:14]
  store float %1388, float* %1404, align 4, !dbg !6283 ; [debug line = 369:14]
  br label %1405, !dbg !6283                      ; [debug line = 369:14]

; <label>:1405                                    ; preds = %1374
  %1406 = load i32* %i79, align 4, !dbg !6284     ; [#uses=1 type=i32] [debug line = 368:26]
  %1407 = add nsw i32 %1406, 1, !dbg !6284        ; [#uses=1 type=i32] [debug line = 368:26]
  store i32 %1407, i32* %i79, align 4, !dbg !6284 ; [debug line = 368:26]
  br label %1371, !dbg !6284                      ; [debug line = 368:26]

; <label>:1408                                    ; preds = %1371
  br label %1409, !dbg !6285                      ; [debug line = 369:113]

; <label>:1409                                    ; preds = %1408
  %1410 = load i32* %ci78, align 4, !dbg !6286    ; [#uses=1 type=i32] [debug line = 367:33]
  %1411 = add nsw i32 %1410, 1, !dbg !6286        ; [#uses=1 type=i32] [debug line = 367:33]
  store i32 %1411, i32* %ci78, align 4, !dbg !6286 ; [debug line = 367:33]
  br label %1367, !dbg !6286                      ; [debug line = 367:33]

; <label>:1412                                    ; preds = %1367
  br label %1413, !dbg !6287                      ; [debug line = 369:113]

; <label>:1413                                    ; preds = %1412
  %1414 = load i32* %co77, align 4, !dbg !6288    ; [#uses=1 type=i32] [debug line = 366:30]
  %1415 = add nsw i32 %1414, 1, !dbg !6288        ; [#uses=1 type=i32] [debug line = 366:30]
  store i32 %1415, i32* %co77, align 4, !dbg !6288 ; [debug line = 366:30]
  br label %1363, !dbg !6288                      ; [debug line = 366:30]

; <label>:1416                                    ; preds = %1363
  call void @llvm.dbg.declare(metadata !{i32* %i80}, metadata !6289), !dbg !6291 ; [debug line = 370:13] [debug variable = i]
  store i32 0, i32* %i80, align 4, !dbg !6292     ; [debug line = 370:18]
  br label %1417, !dbg !6292                      ; [debug line = 370:18]

; <label>:1417                                    ; preds = %1444, %1416
  %1418 = load i32* %i80, align 4, !dbg !6292     ; [#uses=1 type=i32] [debug line = 370:18]
  %1419 = icmp slt i32 %1418, 24, !dbg !6292      ; [#uses=1 type=i1] [debug line = 370:18]
  br i1 %1419, label %1420, label %1447, !dbg !6292 ; [debug line = 370:18]

; <label>:1420                                    ; preds = %1417
  call void @llvm.dbg.declare(metadata !{i32* %k81}, metadata !6293), !dbg !6295 ; [debug line = 371:11] [debug variable = k]
  store i32 0, i32* %k81, align 4, !dbg !6296     ; [debug line = 371:16]
  br label %1421, !dbg !6296                      ; [debug line = 371:16]

; <label>:1421                                    ; preds = %1440, %1420
  %1422 = load i32* %k81, align 4, !dbg !6296     ; [#uses=1 type=i32] [debug line = 371:16]
  %1423 = icmp slt i32 %1422, 2, !dbg !6296       ; [#uses=1 type=i1] [debug line = 371:16]
  br i1 %1423, label %1424, label %1443, !dbg !6296 ; [debug line = 371:16]

; <label>:1424                                    ; preds = %1421
  %1425 = load i32* %i80, align 4, !dbg !6297     ; [#uses=1 type=i32] [debug line = 372:10]
  %1426 = add nsw i32 %1425, 456, !dbg !6297      ; [#uses=1 type=i32] [debug line = 372:10]
  %1427 = load i32* %k81, align 4, !dbg !6297     ; [#uses=1 type=i32] [debug line = 372:10]
  %1428 = mul nsw i32 %1427, 24, !dbg !6297       ; [#uses=1 type=i32] [debug line = 372:10]
  %1429 = add nsw i32 %1426, %1428, !dbg !6297    ; [#uses=1 type=i32] [debug line = 372:10]
  %1430 = sext i32 %1429 to i64, !dbg !6297       ; [#uses=1 type=i64] [debug line = 372:10]
  %1431 = load float** %7, align 8, !dbg !6297    ; [#uses=1 type=float*] [debug line = 372:10]
  %1432 = getelementptr inbounds float* %1431, i64 %1430, !dbg !6297 ; [#uses=1 type=float*] [debug line = 372:10]
  %1433 = load float* %1432, align 4, !dbg !6297  ; [#uses=1 type=float] [debug line = 372:10]
  %1434 = load i32* %i80, align 4, !dbg !6297     ; [#uses=1 type=i32] [debug line = 372:10]
  %1435 = load i32* %k81, align 4, !dbg !6297     ; [#uses=1 type=i32] [debug line = 372:10]
  %1436 = mul nsw i32 %1435, 24, !dbg !6297       ; [#uses=1 type=i32] [debug line = 372:10]
  %1437 = add nsw i32 %1434, %1436, !dbg !6297    ; [#uses=1 type=i32] [debug line = 372:10]
  %1438 = sext i32 %1437 to i64, !dbg !6297       ; [#uses=1 type=i64] [debug line = 372:10]
  %1439 = getelementptr inbounds [48 x float]* @bias_48, i32 0, i64 %1438, !dbg !6297 ; [#uses=1 type=float*] [debug line = 372:10]
  store float %1433, float* %1439, align 4, !dbg !6297 ; [debug line = 372:10]
  br label %1440, !dbg !6297                      ; [debug line = 372:10]

; <label>:1440                                    ; preds = %1424
  %1441 = load i32* %k81, align 4, !dbg !6298     ; [#uses=1 type=i32] [debug line = 371:23]
  %1442 = add nsw i32 %1441, 1, !dbg !6298        ; [#uses=1 type=i32] [debug line = 371:23]
  store i32 %1442, i32* %k81, align 4, !dbg !6298 ; [debug line = 371:23]
  br label %1421, !dbg !6298                      ; [debug line = 371:23]

; <label>:1443                                    ; preds = %1421
  br label %1444, !dbg !6299                      ; [debug line = 372:45]

; <label>:1444                                    ; preds = %1443
  %1445 = load i32* %i80, align 4, !dbg !6300     ; [#uses=1 type=i32] [debug line = 370:26]
  %1446 = add nsw i32 %1445, 1, !dbg !6300        ; [#uses=1 type=i32] [debug line = 370:26]
  store i32 %1446, i32* %i80, align 4, !dbg !6300 ; [debug line = 370:26]
  br label %1417, !dbg !6300                      ; [debug line = 370:26]

; <label>:1447                                    ; preds = %1417
  call void @_Z15subconv_1x1_8_pPA48_A10_A10_fPA48_A1_A1_fPfS2_([48 x [10 x [10 x float]]]* getelementptr inbounds ([1 x [48 x [10 x [10 x float]]]]* @buffer0_1_48_8x8_p, i32 0, i32 0), [48 x [1 x [1 x float]]]* getelementptr inbounds ([48 x [48 x [1 x [1 x float]]]]* @weights_48_48_1x1, i32 0, i32 0), float* getelementptr inbounds ([48 x float]* @bias_48, i32 0, i32 0), [48 x [10 x [10 x float]]]* getelementptr inbounds ([1 x [48 x [10 x [10 x float]]]]* @buffer1_1_48_8x8_p, i32 0, i32 0)), !dbg !6301 ; [debug line = 373:2]
  call void @_Z14shuffle_48_l_pPA48_A10_A10_fPA96_S0_([48 x [10 x [10 x float]]]* getelementptr inbounds ([1 x [48 x [10 x [10 x float]]]]* @buffer1_1_48_8x8_p, i32 0, i32 0), [96 x [10 x [10 x float]]]* getelementptr inbounds ([1 x [96 x [10 x [10 x float]]]]* @downsampleunit1_output_p, i32 0, i32 0)), !dbg !6302 ; [debug line = 377:5]
  call void @llvm.dbg.declare(metadata !{i32* %co82}, metadata !6303), !dbg !6305 ; [debug line = 380:13] [debug variable = co]
  store i32 0, i32* %co82, align 4, !dbg !6306    ; [debug line = 380:19]
  br label %1448, !dbg !6306                      ; [debug line = 380:19]

; <label>:1448                                    ; preds = %1505, %1447
  %1449 = load i32* %co82, align 4, !dbg !6306    ; [#uses=1 type=i32] [debug line = 380:19]
  %1450 = icmp slt i32 %1449, 24, !dbg !6306      ; [#uses=1 type=i1] [debug line = 380:19]
  br i1 %1450, label %1451, label %1508, !dbg !6306 ; [debug line = 380:19]

; <label>:1451                                    ; preds = %1448
  call void @llvm.dbg.declare(metadata !{i32* %w83}, metadata !6307), !dbg !6309 ; [debug line = 381:17] [debug variable = w]
  store i32 0, i32* %w83, align 4, !dbg !6310     ; [debug line = 381:22]
  br label %1452, !dbg !6310                      ; [debug line = 381:22]

; <label>:1452                                    ; preds = %1501, %1451
  %1453 = load i32* %w83, align 4, !dbg !6310     ; [#uses=1 type=i32] [debug line = 381:22]
  %1454 = icmp slt i32 %1453, 3, !dbg !6310       ; [#uses=1 type=i1] [debug line = 381:22]
  br i1 %1454, label %1455, label %1504, !dbg !6310 ; [debug line = 381:22]

; <label>:1455                                    ; preds = %1452
  call void @llvm.dbg.declare(metadata !{i32* %h84}, metadata !6311), !dbg !6313 ; [debug line = 382:21] [debug variable = h]
  store i32 0, i32* %h84, align 4, !dbg !6314     ; [debug line = 382:26]
  br label %1456, !dbg !6314                      ; [debug line = 382:26]

; <label>:1456                                    ; preds = %1497, %1455
  %1457 = load i32* %h84, align 4, !dbg !6314     ; [#uses=1 type=i32] [debug line = 382:26]
  %1458 = icmp slt i32 %1457, 3, !dbg !6314       ; [#uses=1 type=i1] [debug line = 382:26]
  br i1 %1458, label %1459, label %1500, !dbg !6314 ; [debug line = 382:26]

; <label>:1459                                    ; preds = %1456
  call void @llvm.dbg.declare(metadata !{i32* %i85}, metadata !6315), !dbg !6317 ; [debug line = 383:13] [debug variable = i]
  store i32 0, i32* %i85, align 4, !dbg !6318     ; [debug line = 383:18]
  br label %1460, !dbg !6318                      ; [debug line = 383:18]

; <label>:1460                                    ; preds = %1493, %1459
  %1461 = load i32* %i85, align 4, !dbg !6318     ; [#uses=1 type=i32] [debug line = 383:18]
  %1462 = icmp slt i32 %1461, 2, !dbg !6318       ; [#uses=1 type=i1] [debug line = 383:18]
  br i1 %1462, label %1463, label %1496, !dbg !6318 ; [debug line = 383:18]

; <label>:1463                                    ; preds = %1460
