; ModuleID = '/home/ziyan/ziyan/ece527/shufflenetv2_master/sufflenetv3_vivado/accelerator_hls/naive/.autopilot/db/a.o.bc'
target datalayout = "e-p:64:64:64-i1:8:8-i8:8:8-i16:16:16-i32:32:32-i64:64:64-f32:32:32-f64:64:64-v64:64:64-v128:128:128-a0:0:64-s0:64:64-f80:128:128-n8:16:32:64-S128"
target triple = "x86_64-unknown-linux-gnu"

%"class.std::ios_base::Init" = type {}
%"class.std::basic_ostream" = type { i32 (...)**, %"class.std::basic_ios" }
%"class.std::basic_ios" = type { %"class.std::ios_base", %"class.std::basic_ostream"*, i8, i1, %"class.std::basic_streambuf"*, %"class.std::ctype"*, %"class.std::num_put"*, %"class.std::num_get"* }
%"class.std::ios_base" = type { i32 (...)**, i64, i64, i17, i17, i17, %"struct.std::ios_base::_Callback_list"*, %"struct.std::ios_base::_Words", [8 x %"struct.std::ios_base::_Words"], i32, %"struct.std::ios_base::_Words"*, %"class.std::locale" }
%"struct.std::ios_base::_Callback_list" = type { %"struct.std::ios_base::_Callback_list"*, void (i2, %"class.std::ios_base"*, i32)*, i32, i32 }
%"struct.std::ios_base::_Words" = type { i8*, i64 }
%"class.std::locale" = type { %"class.std::locale::_Impl"* }
%"class.std::locale::_Impl" = type { i32, %"class.std::locale::facet"**, i64, %"class.std::locale::facet"**, i8** }
%"class.std::locale::facet" = type { i32 (...)**, i32 }
%"class.std::basic_streambuf" = type { i32 (...)**, i8*, i8*, i8*, i8*, i8*, i8*, %"class.std::locale" }
%"class.std::ctype" = type { %"class.std::locale::facet", %struct.__locale_struct*, i1, i32*, i32*, i16*, i8, [256 x i8], [256 x i8], i8 }
%struct.__locale_struct = type { [13 x %"class.std::ios_base::Init"*], i16*, i32*, i32*, [13 x i8*] }
%"class.std::num_put" = type { %"class.std::locale::facet" }
%"class.std::num_get" = type { %"class.std::locale::facet" }
%"class.std::locale::id" = type { i64 }
%"class.std::basic_istream" = type { i32 (...)**, i64, %"class.std::basic_ios" }
%"class.std::basic_istream.0" = type { i32 (...)**, i64, %"class.std::basic_ios.2" }
%"class.std::basic_ios.2" = type { %"class.std::ios_base", %"class.std::basic_ostream.3"*, i32, i1, %"class.std::basic_streambuf.4"*, %"class.std::ctype.5"*, %"class.std::num_put.6"*, %"class.std::num_get.7"* }
%"class.std::basic_ostream.3" = type { i32 (...)**, %"class.std::basic_ios.2" }
%"class.std::basic_streambuf.4" = type { i32 (...)**, i32*, i32*, i32*, i32*, i32*, i32*, %"class.std::locale" }
%"class.std::ctype.5" = type { %"class.std::__ctype_abstract_base", %struct.__locale_struct*, i1, [128 x i8], [256 x i32], [16 x i16], [16 x i64] }
%"class.std::__ctype_abstract_base" = type { %"class.std::locale::facet" }
%"class.std::num_put.6" = type { %"class.std::locale::facet" }
%"class.std::num_get.7" = type { %"class.std::locale::facet" }

@_ZStL8__ioinit = internal global %"class.std::ios_base::Init" zeroinitializer, align 1 ; [#uses=2 type=%"class.std::ios_base::Init"*]
@conv1_output = global [1 x [24 x [32 x [32 x float]]]] zeroinitializer, align 16 ; [#uses=2 type=[1 x [24 x [32 x [32 x float]]]]*]
@downsampleunit0_output = global [1 x [48 x [16 x [16 x float]]]] zeroinitializer, align 16 ; [#uses=1 type=[1 x [48 x [16 x [16 x float]]]]*]
@shuffleunit0_0_output = global [1 x [48 x [16 x [16 x float]]]] zeroinitializer, align 16 ; [#uses=1 type=[1 x [48 x [16 x [16 x float]]]]*]
@shuffleunit0_1_output = global [1 x [48 x [16 x [16 x float]]]] zeroinitializer, align 16 ; [#uses=1 type=[1 x [48 x [16 x [16 x float]]]]*]
@shuffleunit0_2_output = global [1 x [48 x [16 x [16 x float]]]] zeroinitializer, align 16 ; [#uses=1 type=[1 x [48 x [16 x [16 x float]]]]*]
@downsampleunit1_output = global [1 x [96 x [8 x [8 x float]]]] zeroinitializer, align 16 ; [#uses=1 type=[1 x [96 x [8 x [8 x float]]]]*]
@shuffleunit1_0_output = global [1 x [96 x [8 x [8 x float]]]] zeroinitializer, align 16 ; [#uses=1 type=[1 x [96 x [8 x [8 x float]]]]*]
@shuffleunit1_1_output = global [1 x [96 x [8 x [8 x float]]]] zeroinitializer, align 16 ; [#uses=1 type=[1 x [96 x [8 x [8 x float]]]]*]
@shuffleunit1_2_output = global [1 x [96 x [8 x [8 x float]]]] zeroinitializer, align 16 ; [#uses=1 type=[1 x [96 x [8 x [8 x float]]]]*]
@shuffleunit1_3_output = global [1 x [96 x [8 x [8 x float]]]] zeroinitializer, align 16 ; [#uses=1 type=[1 x [96 x [8 x [8 x float]]]]*]
@shuffleunit1_4_output = global [1 x [96 x [8 x [8 x float]]]] zeroinitializer, align 16 ; [#uses=1 type=[1 x [96 x [8 x [8 x float]]]]*]
@shuffleunit1_5_output = global [1 x [96 x [8 x [8 x float]]]] zeroinitializer, align 16 ; [#uses=1 type=[1 x [96 x [8 x [8 x float]]]]*]
@shuffleunit1_6_output = global [1 x [96 x [8 x [8 x float]]]] zeroinitializer, align 16 ; [#uses=1 type=[1 x [96 x [8 x [8 x float]]]]*]
@shuffleunit1_7_output = global [1 x [96 x [8 x [8 x float]]]] zeroinitializer, align 16 ; [#uses=1 type=[1 x [96 x [8 x [8 x float]]]]*]
@downsampleunit2_output = global [1 x [192 x [4 x [4 x float]]]] zeroinitializer, align 16 ; [#uses=1 type=[1 x [192 x [4 x [4 x float]]]]*]
@shuffleunit2_0_output = global [1 x [192 x [4 x [4 x float]]]] zeroinitializer, align 16 ; [#uses=1 type=[1 x [192 x [4 x [4 x float]]]]*]
@shuffleunit2_1_output = global [1 x [192 x [4 x [4 x float]]]] zeroinitializer, align 16 ; [#uses=1 type=[1 x [192 x [4 x [4 x float]]]]*]
@shuffleunit2_2_output = global [1 x [192 x [4 x [4 x float]]]] zeroinitializer, align 16 ; [#uses=1 type=[1 x [192 x [4 x [4 x float]]]]*]
@conv_last_output = global [1 x [512 x [4 x [4 x float]]]] zeroinitializer, align 16 ; [#uses=1 type=[1 x [512 x [4 x [4 x float]]]]*]
@avgpool_output = global [512 x float] zeroinitializer, align 16 ; [#uses=1 type=[512 x float]*]
@conv1_bias = global [24 x float] zeroinitializer, align 16 ; [#uses=3 type=[24 x float]*]
@ShuffleConvs_0_DownsampleUnit_conv1r_weight = global [24 x [24 x [1 x [1 x float]]]] zeroinitializer, align 16 ; [#uses=2 type=[24 x [24 x [1 x [1 x float]]]]*]
@ShuffleConvs_0_DownsampleUnit_conv1r_bias = global [24 x float] zeroinitializer, align 16 ; [#uses=2 type=[24 x float]*]
@ShuffleConvs_0_DownsampleUnit_conv2r_weight = global [24 x [1 x [3 x [3 x float]]]] zeroinitializer, align 16 ; [#uses=2 type=[24 x [1 x [3 x [3 x float]]]]*]
@ShuffleConvs_0_DownsampleUnit_conv2r_bias = global [24 x float] zeroinitializer, align 16 ; [#uses=2 type=[24 x float]*]
@ShuffleConvs_0_DownsampleUnit_conv3r_weight = global [24 x [24 x [1 x [1 x float]]]] zeroinitializer, align 16 ; [#uses=2 type=[24 x [24 x [1 x [1 x float]]]]*]
@ShuffleConvs_0_DownsampleUnit_conv3r_bias = global [24 x float] zeroinitializer, align 16 ; [#uses=2 type=[24 x float]*]
@ShuffleConvs_0_DownsampleUnit_conv1l_weight = global [24 x [1 x [3 x [3 x float]]]] zeroinitializer, align 16 ; [#uses=2 type=[24 x [1 x [3 x [3 x float]]]]*]
@ShuffleConvs_0_DownsampleUnit_conv1l_bias = global [24 x float] zeroinitializer, align 16 ; [#uses=2 type=[24 x float]*]
@ShuffleConvs_0_DownsampleUnit_conv2l_weight = global [24 x [24 x [1 x [1 x float]]]] zeroinitializer, align 16 ; [#uses=2 type=[24 x [24 x [1 x [1 x float]]]]*]
@ShuffleConvs_0_DownsampleUnit_conv2l_bias = global [24 x float] zeroinitializer, align 16 ; [#uses=2 type=[24 x float]*]
@ShuffleConvs_0_ShuffleUnit0_0_conv1_weight = global [24 x [24 x [1 x [1 x float]]]] zeroinitializer, align 16 ; [#uses=2 type=[24 x [24 x [1 x [1 x float]]]]*]
@ShuffleConvs_0_ShuffleUnit0_0_conv1_bias = global [24 x float] zeroinitializer, align 16 ; [#uses=2 type=[24 x float]*]
@ShuffleConvs_0_ShuffleUnit0_0_conv2_weight = global [24 x [1 x [3 x [3 x float]]]] zeroinitializer, align 16 ; [#uses=2 type=[24 x [1 x [3 x [3 x float]]]]*]
@ShuffleConvs_0_ShuffleUnit0_0_conv2_bias = global [24 x float] zeroinitializer, align 16 ; [#uses=2 type=[24 x float]*]
@ShuffleConvs_0_ShuffleUnit0_0_conv3_weight = global [24 x [24 x [1 x [1 x float]]]] zeroinitializer, align 16 ; [#uses=2 type=[24 x [24 x [1 x [1 x float]]]]*]
@ShuffleConvs_0_ShuffleUnit0_0_conv3_bias = global [24 x float] zeroinitializer, align 16 ; [#uses=2 type=[24 x float]*]
@ShuffleConvs_0_ShuffleUnit0_1_conv1_weight = global [24 x [24 x [1 x [1 x float]]]] zeroinitializer, align 16 ; [#uses=2 type=[24 x [24 x [1 x [1 x float]]]]*]
@ShuffleConvs_0_ShuffleUnit0_1_conv1_bias = global [24 x float] zeroinitializer, align 16 ; [#uses=2 type=[24 x float]*]
@ShuffleConvs_0_ShuffleUnit0_1_conv2_weight = global [24 x [1 x [3 x [3 x float]]]] zeroinitializer, align 16 ; [#uses=2 type=[24 x [1 x [3 x [3 x float]]]]*]
@ShuffleConvs_0_ShuffleUnit0_1_conv2_bias = global [24 x float] zeroinitializer, align 16 ; [#uses=2 type=[24 x float]*]
@ShuffleConvs_0_ShuffleUnit0_1_conv3_weight = global [24 x [24 x [1 x [1 x float]]]] zeroinitializer, align 16 ; [#uses=2 type=[24 x [24 x [1 x [1 x float]]]]*]
@ShuffleConvs_0_ShuffleUnit0_1_conv3_bias = global [24 x float] zeroinitializer, align 16 ; [#uses=2 type=[24 x float]*]
@ShuffleConvs_0_ShuffleUnit0_2_conv1_weight = global [24 x [24 x [1 x [1 x float]]]] zeroinitializer, align 16 ; [#uses=2 type=[24 x [24 x [1 x [1 x float]]]]*]
@ShuffleConvs_0_ShuffleUnit0_2_conv1_bias = global [24 x float] zeroinitializer, align 16 ; [#uses=2 type=[24 x float]*]
@ShuffleConvs_0_ShuffleUnit0_2_conv2_weight = global [24 x [1 x [3 x [3 x float]]]] zeroinitializer, align 16 ; [#uses=2 type=[24 x [1 x [3 x [3 x float]]]]*]
@ShuffleConvs_0_ShuffleUnit0_2_conv2_bias = global [24 x float] zeroinitializer, align 16 ; [#uses=2 type=[24 x float]*]
@ShuffleConvs_0_ShuffleUnit0_2_conv3_weight = global [24 x [24 x [1 x [1 x float]]]] zeroinitializer, align 16 ; [#uses=2 type=[24 x [24 x [1 x [1 x float]]]]*]
@ShuffleConvs_0_ShuffleUnit0_2_conv3_bias = global [24 x float] zeroinitializer, align 16 ; [#uses=2 type=[24 x float]*]
@ShuffleConvs_1_DownsampleUnit_conv1r_weight = global [48 x [48 x [1 x [1 x float]]]] zeroinitializer, align 16 ; [#uses=2 type=[48 x [48 x [1 x [1 x float]]]]*]
@ShuffleConvs_1_DownsampleUnit_conv1r_bias = global [48 x float] zeroinitializer, align 16 ; [#uses=2 type=[48 x float]*]
@ShuffleConvs_1_DownsampleUnit_conv2r_weight = global [48 x [1 x [3 x [3 x float]]]] zeroinitializer, align 16 ; [#uses=2 type=[48 x [1 x [3 x [3 x float]]]]*]
@ShuffleConvs_1_DownsampleUnit_conv2r_bias = global [48 x float] zeroinitializer, align 16 ; [#uses=2 type=[48 x float]*]
@ShuffleConvs_1_DownsampleUnit_conv3r_weight = global [48 x [48 x [1 x [1 x float]]]] zeroinitializer, align 16 ; [#uses=2 type=[48 x [48 x [1 x [1 x float]]]]*]
@ShuffleConvs_1_DownsampleUnit_conv3r_bias = global [48 x float] zeroinitializer, align 16 ; [#uses=2 type=[48 x float]*]
@ShuffleConvs_1_DownsampleUnit_conv1l_weight = global [48 x [1 x [3 x [3 x float]]]] zeroinitializer, align 16 ; [#uses=2 type=[48 x [1 x [3 x [3 x float]]]]*]
@ShuffleConvs_1_DownsampleUnit_conv1l_bias = global [48 x float] zeroinitializer, align 16 ; [#uses=2 type=[48 x float]*]
@ShuffleConvs_1_DownsampleUnit_conv2l_weight = global [48 x [48 x [1 x [1 x float]]]] zeroinitializer, align 16 ; [#uses=2 type=[48 x [48 x [1 x [1 x float]]]]*]
@ShuffleConvs_1_DownsampleUnit_conv2l_bias = global [48 x float] zeroinitializer, align 16 ; [#uses=2 type=[48 x float]*]
@ShuffleConvs_1_ShuffleUnit1_0_conv1_weight = global [48 x [48 x [1 x [1 x float]]]] zeroinitializer, align 16 ; [#uses=2 type=[48 x [48 x [1 x [1 x float]]]]*]
@ShuffleConvs_1_ShuffleUnit1_0_conv1_bias = global [48 x float] zeroinitializer, align 16 ; [#uses=2 type=[48 x float]*]
@ShuffleConvs_1_ShuffleUnit1_0_conv2_weight = global [48 x [1 x [3 x [3 x float]]]] zeroinitializer, align 16 ; [#uses=2 type=[48 x [1 x [3 x [3 x float]]]]*]
@ShuffleConvs_1_ShuffleUnit1_0_conv2_bias = global [48 x float] zeroinitializer, align 16 ; [#uses=2 type=[48 x float]*]
@ShuffleConvs_1_ShuffleUnit1_0_conv3_weight = global [48 x [48 x [1 x [1 x float]]]] zeroinitializer, align 16 ; [#uses=2 type=[48 x [48 x [1 x [1 x float]]]]*]
@ShuffleConvs_1_ShuffleUnit1_0_conv3_bias = global [48 x float] zeroinitializer, align 16 ; [#uses=2 type=[48 x float]*]
@ShuffleConvs_1_ShuffleUnit1_1_conv1_weight = global [48 x [48 x [1 x [1 x float]]]] zeroinitializer, align 16 ; [#uses=2 type=[48 x [48 x [1 x [1 x float]]]]*]
@ShuffleConvs_1_ShuffleUnit1_1_conv1_bias = global [48 x float] zeroinitializer, align 16 ; [#uses=2 type=[48 x float]*]
@ShuffleConvs_1_ShuffleUnit1_1_conv2_weight = global [48 x [1 x [3 x [3 x float]]]] zeroinitializer, align 16 ; [#uses=2 type=[48 x [1 x [3 x [3 x float]]]]*]
@ShuffleConvs_1_ShuffleUnit1_1_conv2_bias = global [48 x float] zeroinitializer, align 16 ; [#uses=2 type=[48 x float]*]
@ShuffleConvs_1_ShuffleUnit1_1_conv3_weight = global [48 x [48 x [1 x [1 x float]]]] zeroinitializer, align 16 ; [#uses=2 type=[48 x [48 x [1 x [1 x float]]]]*]
@ShuffleConvs_1_ShuffleUnit1_1_conv3_bias = global [48 x float] zeroinitializer, align 16 ; [#uses=2 type=[48 x float]*]
@ShuffleConvs_1_ShuffleUnit1_2_conv1_weight = global [48 x [48 x [1 x [1 x float]]]] zeroinitializer, align 16 ; [#uses=2 type=[48 x [48 x [1 x [1 x float]]]]*]
@ShuffleConvs_1_ShuffleUnit1_2_conv1_bias = global [48 x float] zeroinitializer, align 16 ; [#uses=2 type=[48 x float]*]
@ShuffleConvs_1_ShuffleUnit1_2_conv2_weight = global [48 x [1 x [3 x [3 x float]]]] zeroinitializer, align 16 ; [#uses=2 type=[48 x [1 x [3 x [3 x float]]]]*]
@ShuffleConvs_1_ShuffleUnit1_2_conv2_bias = global [48 x float] zeroinitializer, align 16 ; [#uses=2 type=[48 x float]*]
@ShuffleConvs_1_ShuffleUnit1_2_conv3_weight = global [48 x [48 x [1 x [1 x float]]]] zeroinitializer, align 16 ; [#uses=2 type=[48 x [48 x [1 x [1 x float]]]]*]
@ShuffleConvs_1_ShuffleUnit1_2_conv3_bias = global [48 x float] zeroinitializer, align 16 ; [#uses=2 type=[48 x float]*]
@ShuffleConvs_1_ShuffleUnit1_3_conv1_weight = global [48 x [48 x [1 x [1 x float]]]] zeroinitializer, align 16 ; [#uses=2 type=[48 x [48 x [1 x [1 x float]]]]*]
@ShuffleConvs_1_ShuffleUnit1_3_conv1_bias = global [48 x float] zeroinitializer, align 16 ; [#uses=2 type=[48 x float]*]
@ShuffleConvs_1_ShuffleUnit1_3_conv2_weight = global [48 x [1 x [3 x [3 x float]]]] zeroinitializer, align 16 ; [#uses=2 type=[48 x [1 x [3 x [3 x float]]]]*]
@ShuffleConvs_1_ShuffleUnit1_3_conv2_bias = global [48 x float] zeroinitializer, align 16 ; [#uses=2 type=[48 x float]*]
@ShuffleConvs_1_ShuffleUnit1_3_conv3_weight = global [48 x [48 x [1 x [1 x float]]]] zeroinitializer, align 16 ; [#uses=2 type=[48 x [48 x [1 x [1 x float]]]]*]
@ShuffleConvs_1_ShuffleUnit1_3_conv3_bias = global [48 x float] zeroinitializer, align 16 ; [#uses=2 type=[48 x float]*]
@ShuffleConvs_1_ShuffleUnit1_4_conv1_weight = global [48 x [48 x [1 x [1 x float]]]] zeroinitializer, align 16 ; [#uses=2 type=[48 x [48 x [1 x [1 x float]]]]*]
@ShuffleConvs_1_ShuffleUnit1_4_conv1_bias = global [48 x float] zeroinitializer, align 16 ; [#uses=2 type=[48 x float]*]
@ShuffleConvs_1_ShuffleUnit1_4_conv2_weight = global [48 x [1 x [3 x [3 x float]]]] zeroinitializer, align 16 ; [#uses=2 type=[48 x [1 x [3 x [3 x float]]]]*]
@ShuffleConvs_1_ShuffleUnit1_4_conv2_bias = global [48 x float] zeroinitializer, align 16 ; [#uses=2 type=[48 x float]*]
@ShuffleConvs_1_ShuffleUnit1_4_conv3_weight = global [48 x [48 x [1 x [1 x float]]]] zeroinitializer, align 16 ; [#uses=2 type=[48 x [48 x [1 x [1 x float]]]]*]
@ShuffleConvs_1_ShuffleUnit1_4_conv3_bias = global [48 x float] zeroinitializer, align 16 ; [#uses=2 type=[48 x float]*]
@ShuffleConvs_1_ShuffleUnit1_5_conv1_weight = global [48 x [48 x [1 x [1 x float]]]] zeroinitializer, align 16 ; [#uses=2 type=[48 x [48 x [1 x [1 x float]]]]*]
@ShuffleConvs_1_ShuffleUnit1_5_conv1_bias = global [48 x float] zeroinitializer, align 16 ; [#uses=2 type=[48 x float]*]
@ShuffleConvs_1_ShuffleUnit1_5_conv2_weight = global [48 x [1 x [3 x [3 x float]]]] zeroinitializer, align 16 ; [#uses=2 type=[48 x [1 x [3 x [3 x float]]]]*]
@ShuffleConvs_1_ShuffleUnit1_5_conv2_bias = global [48 x float] zeroinitializer, align 16 ; [#uses=2 type=[48 x float]*]
@ShuffleConvs_1_ShuffleUnit1_5_conv3_weight = global [48 x [48 x [1 x [1 x float]]]] zeroinitializer, align 16 ; [#uses=2 type=[48 x [48 x [1 x [1 x float]]]]*]
@ShuffleConvs_1_ShuffleUnit1_5_conv3_bias = global [48 x float] zeroinitializer, align 16 ; [#uses=2 type=[48 x float]*]
@ShuffleConvs_1_ShuffleUnit1_6_conv1_weight = global [48 x [48 x [1 x [1 x float]]]] zeroinitializer, align 16 ; [#uses=2 type=[48 x [48 x [1 x [1 x float]]]]*]
@ShuffleConvs_1_ShuffleUnit1_6_conv1_bias = global [48 x float] zeroinitializer, align 16 ; [#uses=2 type=[48 x float]*]
@ShuffleConvs_1_ShuffleUnit1_6_conv2_weight = global [48 x [1 x [3 x [3 x float]]]] zeroinitializer, align 16 ; [#uses=2 type=[48 x [1 x [3 x [3 x float]]]]*]
@ShuffleConvs_1_ShuffleUnit1_6_conv2_bias = global [48 x float] zeroinitializer, align 16 ; [#uses=2 type=[48 x float]*]
@ShuffleConvs_1_ShuffleUnit1_6_conv3_weight = global [48 x [48 x [1 x [1 x float]]]] zeroinitializer, align 16 ; [#uses=2 type=[48 x [48 x [1 x [1 x float]]]]*]
@ShuffleConvs_1_ShuffleUnit1_6_conv3_bias = global [48 x float] zeroinitializer, align 16 ; [#uses=2 type=[48 x float]*]
@ShuffleConvs_1_ShuffleUnit1_7_conv1_weight = global [48 x [48 x [1 x [1 x float]]]] zeroinitializer, align 16 ; [#uses=2 type=[48 x [48 x [1 x [1 x float]]]]*]
@ShuffleConvs_1_ShuffleUnit1_7_conv1_bias = global [48 x float] zeroinitializer, align 16 ; [#uses=2 type=[48 x float]*]
@ShuffleConvs_1_ShuffleUnit1_7_conv2_weight = global [48 x [1 x [3 x [3 x float]]]] zeroinitializer, align 16 ; [#uses=2 type=[48 x [1 x [3 x [3 x float]]]]*]
@ShuffleConvs_1_ShuffleUnit1_7_conv2_bias = global [48 x float] zeroinitializer, align 16 ; [#uses=2 type=[48 x float]*]
@ShuffleConvs_1_ShuffleUnit1_7_conv3_weight = global [48 x [48 x [1 x [1 x float]]]] zeroinitializer, align 16 ; [#uses=2 type=[48 x [48 x [1 x [1 x float]]]]*]
@ShuffleConvs_1_ShuffleUnit1_7_conv3_bias = global [48 x float] zeroinitializer, align 16 ; [#uses=2 type=[48 x float]*]
@ShuffleConvs_2_DownsampleUnit_conv1r_weight = global [96 x [96 x [1 x [1 x float]]]] zeroinitializer, align 16 ; [#uses=2 type=[96 x [96 x [1 x [1 x float]]]]*]
@ShuffleConvs_2_DownsampleUnit_conv1r_bias = global [96 x float] zeroinitializer, align 16 ; [#uses=2 type=[96 x float]*]
@ShuffleConvs_2_DownsampleUnit_conv2r_weight = global [96 x [1 x [3 x [3 x float]]]] zeroinitializer, align 16 ; [#uses=2 type=[96 x [1 x [3 x [3 x float]]]]*]
@ShuffleConvs_2_DownsampleUnit_conv2r_bias = global [96 x float] zeroinitializer, align 16 ; [#uses=2 type=[96 x float]*]
@ShuffleConvs_2_DownsampleUnit_conv3r_weight = global [96 x [96 x [1 x [1 x float]]]] zeroinitializer, align 16 ; [#uses=2 type=[96 x [96 x [1 x [1 x float]]]]*]
@ShuffleConvs_2_DownsampleUnit_conv3r_bias = global [96 x float] zeroinitializer, align 16 ; [#uses=2 type=[96 x float]*]
@ShuffleConvs_2_DownsampleUnit_conv1l_weight = global [96 x [1 x [3 x [3 x float]]]] zeroinitializer, align 16 ; [#uses=2 type=[96 x [1 x [3 x [3 x float]]]]*]
@ShuffleConvs_2_DownsampleUnit_conv1l_bias = global [96 x float] zeroinitializer, align 16 ; [#uses=2 type=[96 x float]*]
@ShuffleConvs_2_DownsampleUnit_conv2l_weight = global [96 x [96 x [1 x [1 x float]]]] zeroinitializer, align 16 ; [#uses=2 type=[96 x [96 x [1 x [1 x float]]]]*]
@ShuffleConvs_2_DownsampleUnit_conv2l_bias = global [96 x float] zeroinitializer, align 16 ; [#uses=2 type=[96 x float]*]
@ShuffleConvs_2_ShuffleUnit2_0_conv1_weight = global [96 x [96 x [1 x [1 x float]]]] zeroinitializer, align 16 ; [#uses=2 type=[96 x [96 x [1 x [1 x float]]]]*]
@ShuffleConvs_2_ShuffleUnit2_0_conv1_bias = global [96 x float] zeroinitializer, align 16 ; [#uses=2 type=[96 x float]*]
@ShuffleConvs_2_ShuffleUnit2_0_conv2_weight = global [96 x [1 x [3 x [3 x float]]]] zeroinitializer, align 16 ; [#uses=2 type=[96 x [1 x [3 x [3 x float]]]]*]
@ShuffleConvs_2_ShuffleUnit2_0_conv2_bias = global [96 x float] zeroinitializer, align 16 ; [#uses=2 type=[96 x float]*]
@ShuffleConvs_2_ShuffleUnit2_0_conv3_weight = global [96 x [96 x [1 x [1 x float]]]] zeroinitializer, align 16 ; [#uses=2 type=[96 x [96 x [1 x [1 x float]]]]*]
@ShuffleConvs_2_ShuffleUnit2_0_conv3_bias = global [96 x float] zeroinitializer, align 16 ; [#uses=2 type=[96 x float]*]
@ShuffleConvs_2_ShuffleUnit2_1_conv1_weight = global [96 x [96 x [1 x [1 x float]]]] zeroinitializer, align 16 ; [#uses=2 type=[96 x [96 x [1 x [1 x float]]]]*]
@ShuffleConvs_2_ShuffleUnit2_1_conv1_bias = global [96 x float] zeroinitializer, align 16 ; [#uses=2 type=[96 x float]*]
@ShuffleConvs_2_ShuffleUnit2_1_conv2_weight = global [96 x [1 x [3 x [3 x float]]]] zeroinitializer, align 16 ; [#uses=2 type=[96 x [1 x [3 x [3 x float]]]]*]
@ShuffleConvs_2_ShuffleUnit2_1_conv2_bias = global [96 x float] zeroinitializer, align 16 ; [#uses=2 type=[96 x float]*]
@ShuffleConvs_2_ShuffleUnit2_1_conv3_weight = global [96 x [96 x [1 x [1 x float]]]] zeroinitializer, align 16 ; [#uses=2 type=[96 x [96 x [1 x [1 x float]]]]*]
@ShuffleConvs_2_ShuffleUnit2_1_conv3_bias = global [96 x float] zeroinitializer, align 16 ; [#uses=2 type=[96 x float]*]
@ShuffleConvs_2_ShuffleUnit2_2_conv1_weight = global [96 x [96 x [1 x [1 x float]]]] zeroinitializer, align 16 ; [#uses=2 type=[96 x [96 x [1 x [1 x float]]]]*]
@ShuffleConvs_2_ShuffleUnit2_2_conv1_bias = global [96 x float] zeroinitializer, align 16 ; [#uses=2 type=[96 x float]*]
@ShuffleConvs_2_ShuffleUnit2_2_conv2_weight = global [96 x [1 x [3 x [3 x float]]]] zeroinitializer, align 16 ; [#uses=2 type=[96 x [1 x [3 x [3 x float]]]]*]
@ShuffleConvs_2_ShuffleUnit2_2_conv2_bias = global [96 x float] zeroinitializer, align 16 ; [#uses=2 type=[96 x float]*]
@ShuffleConvs_2_ShuffleUnit2_2_conv3_weight = global [96 x [96 x [1 x [1 x float]]]] zeroinitializer, align 16 ; [#uses=2 type=[96 x [96 x [1 x [1 x float]]]]*]
@ShuffleConvs_2_ShuffleUnit2_2_conv3_bias = global [96 x float] zeroinitializer, align 16 ; [#uses=2 type=[96 x float]*]
@conv_last_bias = global [512 x float] zeroinitializer, align 16 ; [#uses=2 type=[512 x float]*]
@fc_bias = global [10 x float] zeroinitializer, align 16 ; [#uses=2 type=[10 x float]*]
@_ZSt4cout = external global %"class.std::basic_ostream" ; [#uses=7 type=%"class.std::basic_ostream"*]
@.str = private unnamed_addr constant [2 x i8] c" \00", align 1 ; [#uses=1 type=[2 x i8]*]
@_ZN9__gnu_cxx24__numeric_traits_integer11__is_signedE = external constant i1 ; [#uses=0 type=i1*]
@_ZN9__gnu_cxx24__numeric_traits_integer8__digitsE = external constant i32 ; [#uses=0 type=i32*]
@_ZN9__gnu_cxx25__numeric_traits_floating14__max_digits10E = external constant i32 ; [#uses=0 type=i32*]
@_ZN9__gnu_cxx25__numeric_traits_floating11__is_signedE = external constant i1 ; [#uses=0 type=i1*]
@_ZN9__gnu_cxx25__numeric_traits_floating10__digits10E = external constant i32 ; [#uses=0 type=i32*]
@_ZN9__gnu_cxx25__numeric_traits_floating16__max_exponent10E = external constant i32 ; [#uses=0 type=i32*]
@__daylight = external global i32                 ; [#uses=0 type=i32*]
@__timezone = external global i64                 ; [#uses=0 type=i64*]
@daylight = external global i32                   ; [#uses=0 type=i32*]
@timezone = external global i64                   ; [#uses=0 type=i64*]
@getdate_err = external global i32                ; [#uses=0 type=i32*]
@__environ = external global i8**                 ; [#uses=0 type=i8***]
@environ = external global i8**                   ; [#uses=0 type=i8***]
@optarg = external global i8*                     ; [#uses=0 type=i8**]
@optind = external global i32                     ; [#uses=0 type=i32*]
@opterr = external global i32                     ; [#uses=0 type=i32*]
@optopt = external global i32                     ; [#uses=0 type=i32*]
@_ZSt7nothrow = external global %"class.std::ios_base::Init" ; [#uses=0 type=%"class.std::ios_base::Init"*]
@_ZNSt6locale10_S_classicE = external global %"class.std::locale::_Impl"* ; [#uses=0 type=%"class.std::locale::_Impl"**]
@_ZNSt6locale9_S_globalE = external global %"class.std::locale::_Impl"* ; [#uses=0 type=%"class.std::locale::_Impl"**]
@_ZNSt6locale7_S_onceE = external global i32      ; [#uses=0 type=i32*]
@_ZNSt6locale5facet11_S_c_localeE = external global %struct.__locale_struct* ; [#uses=0 type=%struct.__locale_struct**]
@_ZNSt6locale5facet7_S_onceE = external global i32 ; [#uses=0 type=i32*]
@_ZNSt6locale2id11_S_refcountE = external global i32 ; [#uses=0 type=i32*]
@_ZNSt7collate2idE = external global %"class.std::locale::id" ; [#uses=0 type=%"class.std::locale::id"*]
@_ZNSt8ios_base4Init11_S_refcountE = external global i32 ; [#uses=0 type=i32*]
@_ZNSt8ios_base4Init20_S_synced_with_stdioE = external global i1 ; [#uses=0 type=i1*]
@_ZNSt5ctype2idE = external global %"class.std::locale::id" ; [#uses=0 type=%"class.std::locale::id"*]
@_ZNSt5ctypeIcE2idE = external global %"class.std::locale::id" ; [#uses=0 type=%"class.std::locale::id"*]
@_ZNSt5ctypeIwE2idE = external global %"class.std::locale::id" ; [#uses=0 type=%"class.std::locale::id"*]
@_ZNSt10__num_base12_S_atoms_outE = external global i8* ; [#uses=0 type=i8**]
@_ZNSt10__num_base11_S_atoms_inE = external global i8* ; [#uses=0 type=i8**]
@_ZNSt8numpunct2idE = external global %"class.std::locale::id" ; [#uses=0 type=%"class.std::locale::id"*]
@_ZNSt7num_get2idE = external global %"class.std::locale::id" ; [#uses=0 type=%"class.std::locale::id"*]
@_ZNSt7num_put2idE = external global %"class.std::locale::id" ; [#uses=0 type=%"class.std::locale::id"*]
@_ZSt3cin = external global %"class.std::basic_istream" ; [#uses=0 type=%"class.std::basic_istream"*]
@_ZSt4cerr = external global %"class.std::basic_ostream" ; [#uses=0 type=%"class.std::basic_ostream"*]
@_ZSt4clog = external global %"class.std::basic_ostream" ; [#uses=0 type=%"class.std::basic_ostream"*]
@_ZSt4wcin = external global %"class.std::basic_istream.0" ; [#uses=0 type=%"class.std::basic_istream.0"*]
@_ZSt5wcout = external global %"class.std::basic_ostream.3" ; [#uses=0 type=%"class.std::basic_ostream.3"*]
@_ZSt5wcerr = external global %"class.std::basic_ostream.3" ; [#uses=0 type=%"class.std::basic_ostream.3"*]
@_ZSt5wclog = external global %"class.std::basic_ostream.3" ; [#uses=0 type=%"class.std::basic_ostream.3"*]
@_ZNSt7codecvt2idE = external global %"class.std::locale::id" ; [#uses=0 type=%"class.std::locale::id"*]
@_ZNSt7codecvtIcc11__mbstate_tE2idE = external global %"class.std::locale::id" ; [#uses=0 type=%"class.std::locale::id"*]
@_ZNSt7codecvtIwc11__mbstate_tE2idE = external global %"class.std::locale::id" ; [#uses=0 type=%"class.std::locale::id"*]
@_IO_2_1_stdin_ = external global %"class.std::ios_base::Init" ; [#uses=0 type=%"class.std::ios_base::Init"*]
@_IO_2_1_stdout_ = external global %"class.std::ios_base::Init" ; [#uses=0 type=%"class.std::ios_base::Init"*]
@_IO_2_1_stderr_ = external global %"class.std::ios_base::Init" ; [#uses=0 type=%"class.std::ios_base::Init"*]
@sys_nerr = external global i32                   ; [#uses=0 type=i32*]
@_sys_nerr = external global i32                  ; [#uses=0 type=i32*]
@signgam = external global i32                    ; [#uses=0 type=i32*]
@llvm.global_ctors = appending global [2 x { i32, void ()* }] [{ i32, void ()* } { i32 65535, void ()* @_GLOBAL__I_a }, { i32, void ()* } { i32 65535, void ()* @_GLOBAL__I_a25 }] ; [#uses=0 type=[2 x { i32, void ()* }]*]
@_ZStL8__ioinit1 = internal global %"class.std::ios_base::Init" zeroinitializer, align 1 ; [#uses=2 type=%"class.std::ios_base::Init"*]
@.str26 = private unnamed_addr constant [6 x i8] c"m_axi\00", align 1 ; [#uses=1 type=[6 x i8]*]
@.str1 = private unnamed_addr constant [1 x i8] zeroinitializer, align 1 ; [#uses=1 type=[1 x i8]*]
@.str2 = private unnamed_addr constant [7 x i8] c"DATA_A\00", align 1 ; [#uses=1 type=[7 x i8]*]
@.str3 = private unnamed_addr constant [6 x i8] c"slave\00", align 1 ; [#uses=1 type=[6 x i8]*]
@.str4 = private unnamed_addr constant [7 x i8] c"DATA_B\00", align 1 ; [#uses=1 type=[7 x i8]*]
@.str5 = private unnamed_addr constant [7 x i8] c"DATA_C\00", align 1 ; [#uses=1 type=[7 x i8]*]
@.str6 = private unnamed_addr constant [10 x i8] c"s_axilite\00", align 1 ; [#uses=1 type=[10 x i8]*]
@.str7 = private unnamed_addr constant [4 x i8] c"CTL\00", align 1 ; [#uses=1 type=[4 x i8]*]
@.str8 = private unnamed_addr constant [12 x i8] c"hls_label_0\00", align 1 ; [#uses=1 type=[12 x i8]*]

; [#uses=1]
define internal void @__cxx_global_var_init() nounwind section ".text.startup" {
  call void @_ZNSt8ios_base4InitC1Ev(%"class.std::ios_base::Init"* @_ZStL8__ioinit)
  %1 = call i32 @atexit(void ()* @__dtor__ZStL8__ioinit) ; [#uses=0 type=i32]
  ret void
}

; [#uses=2]
declare void @_ZNSt8ios_base4InitC1Ev(%"class.std::ios_base::Init"*)

; [#uses=2]
declare void @_ZNSt8ios_base4InitD1Ev(%"class.std::ios_base::Init"*)

; [#uses=1]
define internal void @__dtor__ZStL8__ioinit() nounwind section ".text.startup" {
  call void @_ZNSt8ios_base4InitD1Ev(%"class.std::ios_base::Init"* @_ZStL8__ioinit)
  ret void
}

; [#uses=2]
declare i32 @atexit(void ()*) nounwind

; [#uses=0]
define void @_Z12ShuffleNetV2PA3_A32_A32_fPA3_A3_A3_fPA1_S4_PA24_A1_A1_fPA192_SA_PA512_fPfSH_([3 x [32 x [32 x float]]]* %image, [3 x [3 x [3 x float]]]* %conv1_weight, [1 x [3 x [3 x float]]]* %shuffle_conv_3x3, [24 x [1 x [1 x float]]]* %shuffle_conv_1x1, [192 x [1 x [1 x float]]]* %conv_last_weight, [512 x float]* %fc_weight, float* %bias, float* %fc_output) nounwind uwtable {
  %1 = alloca [3 x [32 x [32 x float]]]*, align 8 ; [#uses=4 type=[3 x [32 x [32 x float]]]**]
  %2 = alloca [3 x [3 x [3 x float]]]*, align 8   ; [#uses=3 type=[3 x [3 x [3 x float]]]**]
  %3 = alloca [1 x [3 x [3 x float]]]*, align 8   ; [#uses=22 type=[1 x [3 x [3 x float]]]**]
  %4 = alloca [24 x [1 x [1 x float]]]*, align 8  ; [#uses=39 type=[24 x [1 x [1 x float]]]**]
  %5 = alloca [192 x [1 x [1 x float]]]*, align 8 ; [#uses=3 type=[192 x [1 x [1 x float]]]**]
  %6 = alloca [512 x float]*, align 8             ; [#uses=3 type=[512 x float]**]
  %7 = alloca float*, align 8                     ; [#uses=62 type=float**]
  %8 = alloca float*, align 8                     ; [#uses=4 type=float**]
  %co = alloca i32, align 4                       ; [#uses=106 type=i32*]
  %ci = alloca i32, align 4                       ; [#uses=78 type=i32*]
  %i = alloca i32, align 4                        ; [#uses=42 type=i32*]
  %i1 = alloca i32, align 4                       ; [#uses=22 type=i32*]
  %co2 = alloca i32, align 4                      ; [#uses=44 type=i32*]
  %w = alloca i32, align 4                        ; [#uses=44 type=i32*]
  %h = alloca i32, align 4                        ; [#uses=44 type=i32*]
  %i3 = alloca i32, align 4                       ; [#uses=24 type=i32*]
  %i4 = alloca i32, align 4                       ; [#uses=14 type=i32*]
  %i5 = alloca i32, align 4                       ; [#uses=120 type=i32*]
  %k = alloca i32, align 4                        ; [#uses=62 type=i32*]
  %k6 = alloca i32, align 4                       ; [#uses=32 type=i32*]
  %i7 = alloca i32, align 4                       ; [#uses=6 type=i32*]
  %i8 = alloca i32, align 4                       ; [#uses=6 type=i32*]
  %i9 = alloca i32, align 4                       ; [#uses=5 type=i32*]
  %j = alloca i32, align 4                        ; [#uses=5 type=i32*]
  %k10 = alloca i32, align 4                      ; [#uses=5 type=i32*]
  %i11 = alloca i32, align 4                      ; [#uses=5 type=i32*]
  %w12 = alloca i32, align 4                      ; [#uses=5 type=i32*]
  %h13 = alloca i32, align 4                      ; [#uses=5 type=i32*]
  %i14 = alloca i32, align 4                      ; [#uses=5 type=i32*]
  store [3 x [32 x [32 x float]]]* %image, [3 x [32 x [32 x float]]]** %1, align 8
  call void @llvm.dbg.declare(metadata !{[3 x [32 x [32 x float]]]** %1}, metadata !5795), !dbg !5796 ; [debug line = 143:25] [debug variable = image]
  store [3 x [3 x [3 x float]]]* %conv1_weight, [3 x [3 x [3 x float]]]** %2, align 8
  call void @llvm.dbg.declare(metadata !{[3 x [3 x [3 x float]]]** %2}, metadata !5797), !dbg !5798 ; [debug line = 144:9] [debug variable = conv1_weight]
  store [1 x [3 x [3 x float]]]* %shuffle_conv_3x3, [1 x [3 x [3 x float]]]** %3, align 8
  call void @llvm.dbg.declare(metadata !{[1 x [3 x [3 x float]]]** %3}, metadata !5799), !dbg !5800 ; [debug line = 145:9] [debug variable = shuffle_conv_3x3]
  store [24 x [1 x [1 x float]]]* %shuffle_conv_1x1, [24 x [1 x [1 x float]]]** %4, align 8
  call void @llvm.dbg.declare(metadata !{[24 x [1 x [1 x float]]]** %4}, metadata !5801), !dbg !5802 ; [debug line = 146:9] [debug variable = shuffle_conv_1x1]
  store [192 x [1 x [1 x float]]]* %conv_last_weight, [192 x [1 x [1 x float]]]** %5, align 8
  call void @llvm.dbg.declare(metadata !{[192 x [1 x [1 x float]]]** %5}, metadata !5803), !dbg !5804 ; [debug line = 147:9] [debug variable = conv_last_weight]
  store [512 x float]* %fc_weight, [512 x float]** %6, align 8
  call void @llvm.dbg.declare(metadata !{[512 x float]** %6}, metadata !5805), !dbg !5806 ; [debug line = 148:9] [debug variable = fc_weight]
  store float* %bias, float** %7, align 8
  call void @llvm.dbg.declare(metadata !{float** %7}, metadata !5807), !dbg !5808 ; [debug line = 149:9] [debug variable = bias]
  store float* %fc_output, float** %8, align 8
  call void @llvm.dbg.declare(metadata !{float** %8}, metadata !5809), !dbg !5810 ; [debug line = 150:9] [debug variable = fc_output]
  %9 = load [24 x [1 x [1 x float]]]** %4, align 8, !dbg !5811 ; [#uses=1 type=[24 x [1 x [1 x float]]]*] [debug line = 152:2]
  call void (...)* @_ssdm_SpecArrayDimSize([24 x [1 x [1 x float]]]* %9, i32 5496) nounwind, !dbg !5811 ; [debug line = 152:2]
  %10 = load [3 x [32 x [32 x float]]]** %1, align 8, !dbg !5813 ; [#uses=1 type=[3 x [32 x [32 x float]]]*] [debug line = 152:48]
  call void (...)* @_ssdm_SpecArrayDimSize([3 x [32 x [32 x float]]]* %10, i32 1) nounwind, !dbg !5813 ; [debug line = 152:48]
  %11 = load [512 x float]** %6, align 8, !dbg !5814 ; [#uses=1 type=[512 x float]*] [debug line = 152:80]
  call void (...)* @_ssdm_SpecArrayDimSize([512 x float]* %11, i32 10) nounwind, !dbg !5814 ; [debug line = 152:80]
  %12 = load [192 x [1 x [1 x float]]]** %5, align 8, !dbg !5815 ; [#uses=1 type=[192 x [1 x [1 x float]]]*] [debug line = 152:117]
  call void (...)* @_ssdm_SpecArrayDimSize([192 x [1 x [1 x float]]]* %12, i32 512) nounwind, !dbg !5815 ; [debug line = 152:117]
  %13 = load float** %7, align 8, !dbg !5816      ; [#uses=1 type=float*] [debug line = 152:162]
  call void (...)* @_ssdm_SpecArrayDimSize(float* %13, i32 3618) nounwind, !dbg !5816 ; [debug line = 152:162]
  %14 = load float** %8, align 8, !dbg !5817      ; [#uses=1 type=float*] [debug line = 152:196]
  call void (...)* @_ssdm_SpecArrayDimSize(float* %14, i32 1000) nounwind, !dbg !5817 ; [debug line = 152:196]
  %15 = load [3 x [3 x [3 x float]]]** %2, align 8, !dbg !5818 ; [#uses=1 type=[3 x [3 x [3 x float]]]*] [debug line = 152:235]
  call void (...)* @_ssdm_SpecArrayDimSize([3 x [3 x [3 x float]]]* %15, i32 24) nounwind, !dbg !5818 ; [debug line = 152:235]
  %16 = load [1 x [3 x [3 x float]]]** %3, align 8, !dbg !5819 ; [#uses=1 type=[1 x [3 x [3 x float]]]*] [debug line = 152:0]
  call void (...)* @_ssdm_SpecArrayDimSize([1 x [3 x [3 x float]]]* %16, i32 1080) nounwind, !dbg !5819 ; [debug line = 152:0]
  call void @llvm.dbg.declare(metadata !{i32* %co}, metadata !5820), !dbg !5822 ; [debug line = 154:14] [debug variable = co]
  store i32 0, i32* %co, align 4, !dbg !5823      ; [debug line = 154:20]
  br label %17, !dbg !5823                        ; [debug line = 154:20]

; <label>:17                                      ; preds = %1055, %0
  %18 = load i32* %co, align 4, !dbg !5823        ; [#uses=1 type=i32] [debug line = 154:20]
  %19 = icmp slt i32 %18, 24, !dbg !5823          ; [#uses=1 type=i1] [debug line = 154:20]
  br i1 %19, label %20, label %1058, !dbg !5823   ; [debug line = 154:20]

; <label>:20                                      ; preds = %17
  call void @llvm.dbg.declare(metadata !{i32* %ci}, metadata !5824), !dbg !5827 ; [debug line = 155:18] [debug variable = ci]
  store i32 0, i32* %ci, align 4, !dbg !5828      ; [debug line = 155:24]
  br label %21, !dbg !5828                        ; [debug line = 155:24]

; <label>:21                                      ; preds = %1051, %20
  %22 = load i32* %ci, align 4, !dbg !5828        ; [#uses=1 type=i32] [debug line = 155:24]
  %23 = icmp slt i32 %22, 24, !dbg !5828          ; [#uses=1 type=i1] [debug line = 155:24]
  br i1 %23, label %24, label %1054, !dbg !5828   ; [debug line = 155:24]

; <label>:24                                      ; preds = %21
  %25 = load i32* %ci, align 4, !dbg !5829        ; [#uses=1 type=i32] [debug line = 156:14]
  %26 = sext i32 %25 to i64, !dbg !5829           ; [#uses=1 type=i64] [debug line = 156:14]
  %27 = load i32* %co, align 4, !dbg !5829        ; [#uses=1 type=i32] [debug line = 156:14]
  %28 = sext i32 %27 to i64, !dbg !5829           ; [#uses=1 type=i64] [debug line = 156:14]
  %29 = load [24 x [1 x [1 x float]]]** %4, align 8, !dbg !5829 ; [#uses=1 type=[24 x [1 x [1 x float]]]*] [debug line = 156:14]
  %30 = getelementptr inbounds [24 x [1 x [1 x float]]]* %29, i64 %28, !dbg !5829 ; [#uses=1 type=[24 x [1 x [1 x float]]]*] [debug line = 156:14]
  %31 = getelementptr inbounds [24 x [1 x [1 x float]]]* %30, i32 0, i64 %26, !dbg !5829 ; [#uses=1 type=[1 x [1 x float]]*] [debug line = 156:14]
  %32 = getelementptr inbounds [1 x [1 x float]]* %31, i32 0, i64 0, !dbg !5829 ; [#uses=1 type=[1 x float]*] [debug line = 156:14]
  %33 = getelementptr inbounds [1 x float]* %32, i32 0, i64 0, !dbg !5829 ; [#uses=1 type=float*] [debug line = 156:14]
  %34 = load float* %33, align 4, !dbg !5829      ; [#uses=1 type=float] [debug line = 156:14]
  %35 = load i32* %ci, align 4, !dbg !5829        ; [#uses=1 type=i32] [debug line = 156:14]
  %36 = sext i32 %35 to i64, !dbg !5829           ; [#uses=1 type=i64] [debug line = 156:14]
  %37 = load i32* %co, align 4, !dbg !5829        ; [#uses=1 type=i32] [debug line = 156:14]
  %38 = sext i32 %37 to i64, !dbg !5829           ; [#uses=1 type=i64] [debug line = 156:14]
  %39 = getelementptr inbounds [24 x [24 x [1 x [1 x float]]]]* @ShuffleConvs_0_DownsampleUnit_conv1r_weight, i32 0, i64 %38, !dbg !5829 ; [#uses=1 type=[24 x [1 x [1 x float]]]*] [debug line = 156:14]
  %40 = getelementptr inbounds [24 x [1 x [1 x float]]]* %39, i32 0, i64 %36, !dbg !5829 ; [#uses=1 type=[1 x [1 x float]]*] [debug line = 156:14]
  %41 = getelementptr inbounds [1 x [1 x float]]* %40, i32 0, i64 0, !dbg !5829 ; [#uses=1 type=[1 x float]*] [debug line = 156:14]
  %42 = getelementptr inbounds [1 x float]* %41, i32 0, i64 0, !dbg !5829 ; [#uses=1 type=float*] [debug line = 156:14]
  store float %34, float* %42, align 4, !dbg !5829 ; [debug line = 156:14]
  %43 = load i32* %ci, align 4, !dbg !5831        ; [#uses=1 type=i32] [debug line = 157:14]
  %44 = sext i32 %43 to i64, !dbg !5831           ; [#uses=1 type=i64] [debug line = 157:14]
  %45 = load i32* %co, align 4, !dbg !5831        ; [#uses=1 type=i32] [debug line = 157:14]
  %46 = add nsw i32 %45, 24, !dbg !5831           ; [#uses=1 type=i32] [debug line = 157:14]
  %47 = sext i32 %46 to i64, !dbg !5831           ; [#uses=1 type=i64] [debug line = 157:14]
  %48 = load [24 x [1 x [1 x float]]]** %4, align 8, !dbg !5831 ; [#uses=1 type=[24 x [1 x [1 x float]]]*] [debug line = 157:14]
  %49 = getelementptr inbounds [24 x [1 x [1 x float]]]* %48, i64 %47, !dbg !5831 ; [#uses=1 type=[24 x [1 x [1 x float]]]*] [debug line = 157:14]
  %50 = getelementptr inbounds [24 x [1 x [1 x float]]]* %49, i32 0, i64 %44, !dbg !5831 ; [#uses=1 type=[1 x [1 x float]]*] [debug line = 157:14]
  %51 = getelementptr inbounds [1 x [1 x float]]* %50, i32 0, i64 0, !dbg !5831 ; [#uses=1 type=[1 x float]*] [debug line = 157:14]
  %52 = getelementptr inbounds [1 x float]* %51, i32 0, i64 0, !dbg !5831 ; [#uses=1 type=float*] [debug line = 157:14]
  %53 = load float* %52, align 4, !dbg !5831      ; [#uses=1 type=float] [debug line = 157:14]
  %54 = load i32* %ci, align 4, !dbg !5831        ; [#uses=1 type=i32] [debug line = 157:14]
  %55 = sext i32 %54 to i64, !dbg !5831           ; [#uses=1 type=i64] [debug line = 157:14]
  %56 = load i32* %co, align 4, !dbg !5831        ; [#uses=1 type=i32] [debug line = 157:14]
  %57 = sext i32 %56 to i64, !dbg !5831           ; [#uses=1 type=i64] [debug line = 157:14]
  %58 = getelementptr inbounds [24 x [24 x [1 x [1 x float]]]]* @ShuffleConvs_0_DownsampleUnit_conv3r_weight, i32 0, i64 %57, !dbg !5831 ; [#uses=1 type=[24 x [1 x [1 x float]]]*] [debug line = 157:14]
  %59 = getelementptr inbounds [24 x [1 x [1 x float]]]* %58, i32 0, i64 %55, !dbg !5831 ; [#uses=1 type=[1 x [1 x float]]*] [debug line = 157:14]
  %60 = getelementptr inbounds [1 x [1 x float]]* %59, i32 0, i64 0, !dbg !5831 ; [#uses=1 type=[1 x float]*] [debug line = 157:14]
  %61 = getelementptr inbounds [1 x float]* %60, i32 0, i64 0, !dbg !5831 ; [#uses=1 type=float*] [debug line = 157:14]
  store float %53, float* %61, align 4, !dbg !5831 ; [debug line = 157:14]
  %62 = load i32* %ci, align 4, !dbg !5832        ; [#uses=1 type=i32] [debug line = 158:14]
  %63 = sext i32 %62 to i64, !dbg !5832           ; [#uses=1 type=i64] [debug line = 158:14]
  %64 = load i32* %co, align 4, !dbg !5832        ; [#uses=1 type=i32] [debug line = 158:14]
  %65 = add nsw i32 %64, 48, !dbg !5832           ; [#uses=1 type=i32] [debug line = 158:14]
  %66 = sext i32 %65 to i64, !dbg !5832           ; [#uses=1 type=i64] [debug line = 158:14]
  %67 = load [24 x [1 x [1 x float]]]** %4, align 8, !dbg !5832 ; [#uses=1 type=[24 x [1 x [1 x float]]]*] [debug line = 158:14]
  %68 = getelementptr inbounds [24 x [1 x [1 x float]]]* %67, i64 %66, !dbg !5832 ; [#uses=1 type=[24 x [1 x [1 x float]]]*] [debug line = 158:14]
  %69 = getelementptr inbounds [24 x [1 x [1 x float]]]* %68, i32 0, i64 %63, !dbg !5832 ; [#uses=1 type=[1 x [1 x float]]*] [debug line = 158:14]
  %70 = getelementptr inbounds [1 x [1 x float]]* %69, i32 0, i64 0, !dbg !5832 ; [#uses=1 type=[1 x float]*] [debug line = 158:14]
  %71 = getelementptr inbounds [1 x float]* %70, i32 0, i64 0, !dbg !5832 ; [#uses=1 type=float*] [debug line = 158:14]
  %72 = load float* %71, align 4, !dbg !5832      ; [#uses=1 type=float] [debug line = 158:14]
  %73 = load i32* %ci, align 4, !dbg !5832        ; [#uses=1 type=i32] [debug line = 158:14]
  %74 = sext i32 %73 to i64, !dbg !5832           ; [#uses=1 type=i64] [debug line = 158:14]
  %75 = load i32* %co, align 4, !dbg !5832        ; [#uses=1 type=i32] [debug line = 158:14]
  %76 = sext i32 %75 to i64, !dbg !5832           ; [#uses=1 type=i64] [debug line = 158:14]
  %77 = getelementptr inbounds [24 x [24 x [1 x [1 x float]]]]* @ShuffleConvs_0_DownsampleUnit_conv2l_weight, i32 0, i64 %76, !dbg !5832 ; [#uses=1 type=[24 x [1 x [1 x float]]]*] [debug line = 158:14]
  %78 = getelementptr inbounds [24 x [1 x [1 x float]]]* %77, i32 0, i64 %74, !dbg !5832 ; [#uses=1 type=[1 x [1 x float]]*] [debug line = 158:14]
  %79 = getelementptr inbounds [1 x [1 x float]]* %78, i32 0, i64 0, !dbg !5832 ; [#uses=1 type=[1 x float]*] [debug line = 158:14]
  %80 = getelementptr inbounds [1 x float]* %79, i32 0, i64 0, !dbg !5832 ; [#uses=1 type=float*] [debug line = 158:14]
  store float %72, float* %80, align 4, !dbg !5832 ; [debug line = 158:14]
  %81 = load i32* %ci, align 4, !dbg !5833        ; [#uses=1 type=i32] [debug line = 159:14]
  %82 = sext i32 %81 to i64, !dbg !5833           ; [#uses=1 type=i64] [debug line = 159:14]
  %83 = load i32* %co, align 4, !dbg !5833        ; [#uses=1 type=i32] [debug line = 159:14]
  %84 = add nsw i32 %83, 72, !dbg !5833           ; [#uses=1 type=i32] [debug line = 159:14]
  %85 = sext i32 %84 to i64, !dbg !5833           ; [#uses=1 type=i64] [debug line = 159:14]
  %86 = load [24 x [1 x [1 x float]]]** %4, align 8, !dbg !5833 ; [#uses=1 type=[24 x [1 x [1 x float]]]*] [debug line = 159:14]
  %87 = getelementptr inbounds [24 x [1 x [1 x float]]]* %86, i64 %85, !dbg !5833 ; [#uses=1 type=[24 x [1 x [1 x float]]]*] [debug line = 159:14]
  %88 = getelementptr inbounds [24 x [1 x [1 x float]]]* %87, i32 0, i64 %82, !dbg !5833 ; [#uses=1 type=[1 x [1 x float]]*] [debug line = 159:14]
  %89 = getelementptr inbounds [1 x [1 x float]]* %88, i32 0, i64 0, !dbg !5833 ; [#uses=1 type=[1 x float]*] [debug line = 159:14]
  %90 = getelementptr inbounds [1 x float]* %89, i32 0, i64 0, !dbg !5833 ; [#uses=1 type=float*] [debug line = 159:14]
  %91 = load float* %90, align 4, !dbg !5833      ; [#uses=1 type=float] [debug line = 159:14]
  %92 = load i32* %ci, align 4, !dbg !5833        ; [#uses=1 type=i32] [debug line = 159:14]
  %93 = sext i32 %92 to i64, !dbg !5833           ; [#uses=1 type=i64] [debug line = 159:14]
  %94 = load i32* %co, align 4, !dbg !5833        ; [#uses=1 type=i32] [debug line = 159:14]
  %95 = sext i32 %94 to i64, !dbg !5833           ; [#uses=1 type=i64] [debug line = 159:14]
  %96 = getelementptr inbounds [24 x [24 x [1 x [1 x float]]]]* @ShuffleConvs_0_ShuffleUnit0_0_conv1_weight, i32 0, i64 %95, !dbg !5833 ; [#uses=1 type=[24 x [1 x [1 x float]]]*] [debug line = 159:14]
  %97 = getelementptr inbounds [24 x [1 x [1 x float]]]* %96, i32 0, i64 %93, !dbg !5833 ; [#uses=1 type=[1 x [1 x float]]*] [debug line = 159:14]
  %98 = getelementptr inbounds [1 x [1 x float]]* %97, i32 0, i64 0, !dbg !5833 ; [#uses=1 type=[1 x float]*] [debug line = 159:14]
  %99 = getelementptr inbounds [1 x float]* %98, i32 0, i64 0, !dbg !5833 ; [#uses=1 type=float*] [debug line = 159:14]
  store float %91, float* %99, align 4, !dbg !5833 ; [debug line = 159:14]
  %100 = load i32* %ci, align 4, !dbg !5834       ; [#uses=1 type=i32] [debug line = 160:14]
  %101 = sext i32 %100 to i64, !dbg !5834         ; [#uses=1 type=i64] [debug line = 160:14]
  %102 = load i32* %co, align 4, !dbg !5834       ; [#uses=1 type=i32] [debug line = 160:14]
  %103 = add nsw i32 %102, 96, !dbg !5834         ; [#uses=1 type=i32] [debug line = 160:14]
  %104 = sext i32 %103 to i64, !dbg !5834         ; [#uses=1 type=i64] [debug line = 160:14]
  %105 = load [24 x [1 x [1 x float]]]** %4, align 8, !dbg !5834 ; [#uses=1 type=[24 x [1 x [1 x float]]]*] [debug line = 160:14]
  %106 = getelementptr inbounds [24 x [1 x [1 x float]]]* %105, i64 %104, !dbg !5834 ; [#uses=1 type=[24 x [1 x [1 x float]]]*] [debug line = 160:14]
  %107 = getelementptr inbounds [24 x [1 x [1 x float]]]* %106, i32 0, i64 %101, !dbg !5834 ; [#uses=1 type=[1 x [1 x float]]*] [debug line = 160:14]
  %108 = getelementptr inbounds [1 x [1 x float]]* %107, i32 0, i64 0, !dbg !5834 ; [#uses=1 type=[1 x float]*] [debug line = 160:14]
  %109 = getelementptr inbounds [1 x float]* %108, i32 0, i64 0, !dbg !5834 ; [#uses=1 type=float*] [debug line = 160:14]
  %110 = load float* %109, align 4, !dbg !5834    ; [#uses=1 type=float] [debug line = 160:14]
  %111 = load i32* %ci, align 4, !dbg !5834       ; [#uses=1 type=i32] [debug line = 160:14]
  %112 = sext i32 %111 to i64, !dbg !5834         ; [#uses=1 type=i64] [debug line = 160:14]
  %113 = load i32* %co, align 4, !dbg !5834       ; [#uses=1 type=i32] [debug line = 160:14]
  %114 = sext i32 %113 to i64, !dbg !5834         ; [#uses=1 type=i64] [debug line = 160:14]
  %115 = getelementptr inbounds [24 x [24 x [1 x [1 x float]]]]* @ShuffleConvs_0_ShuffleUnit0_0_conv3_weight, i32 0, i64 %114, !dbg !5834 ; [#uses=1 type=[24 x [1 x [1 x float]]]*] [debug line = 160:14]
  %116 = getelementptr inbounds [24 x [1 x [1 x float]]]* %115, i32 0, i64 %112, !dbg !5834 ; [#uses=1 type=[1 x [1 x float]]*] [debug line = 160:14]
  %117 = getelementptr inbounds [1 x [1 x float]]* %116, i32 0, i64 0, !dbg !5834 ; [#uses=1 type=[1 x float]*] [debug line = 160:14]
  %118 = getelementptr inbounds [1 x float]* %117, i32 0, i64 0, !dbg !5834 ; [#uses=1 type=float*] [debug line = 160:14]
  store float %110, float* %118, align 4, !dbg !5834 ; [debug line = 160:14]
  %119 = load i32* %ci, align 4, !dbg !5835       ; [#uses=1 type=i32] [debug line = 161:14]
  %120 = sext i32 %119 to i64, !dbg !5835         ; [#uses=1 type=i64] [debug line = 161:14]
  %121 = load i32* %co, align 4, !dbg !5835       ; [#uses=1 type=i32] [debug line = 161:14]
  %122 = add nsw i32 %121, 120, !dbg !5835        ; [#uses=1 type=i32] [debug line = 161:14]
  %123 = sext i32 %122 to i64, !dbg !5835         ; [#uses=1 type=i64] [debug line = 161:14]
  %124 = load [24 x [1 x [1 x float]]]** %4, align 8, !dbg !5835 ; [#uses=1 type=[24 x [1 x [1 x float]]]*] [debug line = 161:14]
  %125 = getelementptr inbounds [24 x [1 x [1 x float]]]* %124, i64 %123, !dbg !5835 ; [#uses=1 type=[24 x [1 x [1 x float]]]*] [debug line = 161:14]
  %126 = getelementptr inbounds [24 x [1 x [1 x float]]]* %125, i32 0, i64 %120, !dbg !5835 ; [#uses=1 type=[1 x [1 x float]]*] [debug line = 161:14]
  %127 = getelementptr inbounds [1 x [1 x float]]* %126, i32 0, i64 0, !dbg !5835 ; [#uses=1 type=[1 x float]*] [debug line = 161:14]
  %128 = getelementptr inbounds [1 x float]* %127, i32 0, i64 0, !dbg !5835 ; [#uses=1 type=float*] [debug line = 161:14]
  %129 = load float* %128, align 4, !dbg !5835    ; [#uses=1 type=float] [debug line = 161:14]
  %130 = load i32* %ci, align 4, !dbg !5835       ; [#uses=1 type=i32] [debug line = 161:14]
  %131 = sext i32 %130 to i64, !dbg !5835         ; [#uses=1 type=i64] [debug line = 161:14]
  %132 = load i32* %co, align 4, !dbg !5835       ; [#uses=1 type=i32] [debug line = 161:14]
  %133 = sext i32 %132 to i64, !dbg !5835         ; [#uses=1 type=i64] [debug line = 161:14]
  %134 = getelementptr inbounds [24 x [24 x [1 x [1 x float]]]]* @ShuffleConvs_0_ShuffleUnit0_1_conv1_weight, i32 0, i64 %133, !dbg !5835 ; [#uses=1 type=[24 x [1 x [1 x float]]]*] [debug line = 161:14]
  %135 = getelementptr inbounds [24 x [1 x [1 x float]]]* %134, i32 0, i64 %131, !dbg !5835 ; [#uses=1 type=[1 x [1 x float]]*] [debug line = 161:14]
  %136 = getelementptr inbounds [1 x [1 x float]]* %135, i32 0, i64 0, !dbg !5835 ; [#uses=1 type=[1 x float]*] [debug line = 161:14]
  %137 = getelementptr inbounds [1 x float]* %136, i32 0, i64 0, !dbg !5835 ; [#uses=1 type=float*] [debug line = 161:14]
  store float %129, float* %137, align 4, !dbg !5835 ; [debug line = 161:14]
  %138 = load i32* %ci, align 4, !dbg !5836       ; [#uses=1 type=i32] [debug line = 162:14]
  %139 = sext i32 %138 to i64, !dbg !5836         ; [#uses=1 type=i64] [debug line = 162:14]
  %140 = load i32* %co, align 4, !dbg !5836       ; [#uses=1 type=i32] [debug line = 162:14]
  %141 = add nsw i32 %140, 144, !dbg !5836        ; [#uses=1 type=i32] [debug line = 162:14]
  %142 = sext i32 %141 to i64, !dbg !5836         ; [#uses=1 type=i64] [debug line = 162:14]
  %143 = load [24 x [1 x [1 x float]]]** %4, align 8, !dbg !5836 ; [#uses=1 type=[24 x [1 x [1 x float]]]*] [debug line = 162:14]
  %144 = getelementptr inbounds [24 x [1 x [1 x float]]]* %143, i64 %142, !dbg !5836 ; [#uses=1 type=[24 x [1 x [1 x float]]]*] [debug line = 162:14]
  %145 = getelementptr inbounds [24 x [1 x [1 x float]]]* %144, i32 0, i64 %139, !dbg !5836 ; [#uses=1 type=[1 x [1 x float]]*] [debug line = 162:14]
  %146 = getelementptr inbounds [1 x [1 x float]]* %145, i32 0, i64 0, !dbg !5836 ; [#uses=1 type=[1 x float]*] [debug line = 162:14]
  %147 = getelementptr inbounds [1 x float]* %146, i32 0, i64 0, !dbg !5836 ; [#uses=1 type=float*] [debug line = 162:14]
  %148 = load float* %147, align 4, !dbg !5836    ; [#uses=1 type=float] [debug line = 162:14]
  %149 = load i32* %ci, align 4, !dbg !5836       ; [#uses=1 type=i32] [debug line = 162:14]
  %150 = sext i32 %149 to i64, !dbg !5836         ; [#uses=1 type=i64] [debug line = 162:14]
  %151 = load i32* %co, align 4, !dbg !5836       ; [#uses=1 type=i32] [debug line = 162:14]
  %152 = sext i32 %151 to i64, !dbg !5836         ; [#uses=1 type=i64] [debug line = 162:14]
  %153 = getelementptr inbounds [24 x [24 x [1 x [1 x float]]]]* @ShuffleConvs_0_ShuffleUnit0_1_conv3_weight, i32 0, i64 %152, !dbg !5836 ; [#uses=1 type=[24 x [1 x [1 x float]]]*] [debug line = 162:14]
  %154 = getelementptr inbounds [24 x [1 x [1 x float]]]* %153, i32 0, i64 %150, !dbg !5836 ; [#uses=1 type=[1 x [1 x float]]*] [debug line = 162:14]
  %155 = getelementptr inbounds [1 x [1 x float]]* %154, i32 0, i64 0, !dbg !5836 ; [#uses=1 type=[1 x float]*] [debug line = 162:14]
  %156 = getelementptr inbounds [1 x float]* %155, i32 0, i64 0, !dbg !5836 ; [#uses=1 type=float*] [debug line = 162:14]
  store float %148, float* %156, align 4, !dbg !5836 ; [debug line = 162:14]
  %157 = load i32* %ci, align 4, !dbg !5837       ; [#uses=1 type=i32] [debug line = 163:14]
  %158 = sext i32 %157 to i64, !dbg !5837         ; [#uses=1 type=i64] [debug line = 163:14]
  %159 = load i32* %co, align 4, !dbg !5837       ; [#uses=1 type=i32] [debug line = 163:14]
  %160 = add nsw i32 %159, 168, !dbg !5837        ; [#uses=1 type=i32] [debug line = 163:14]
  %161 = sext i32 %160 to i64, !dbg !5837         ; [#uses=1 type=i64] [debug line = 163:14]
  %162 = load [24 x [1 x [1 x float]]]** %4, align 8, !dbg !5837 ; [#uses=1 type=[24 x [1 x [1 x float]]]*] [debug line = 163:14]
  %163 = getelementptr inbounds [24 x [1 x [1 x float]]]* %162, i64 %161, !dbg !5837 ; [#uses=1 type=[24 x [1 x [1 x float]]]*] [debug line = 163:14]
  %164 = getelementptr inbounds [24 x [1 x [1 x float]]]* %163, i32 0, i64 %158, !dbg !5837 ; [#uses=1 type=[1 x [1 x float]]*] [debug line = 163:14]
  %165 = getelementptr inbounds [1 x [1 x float]]* %164, i32 0, i64 0, !dbg !5837 ; [#uses=1 type=[1 x float]*] [debug line = 163:14]
  %166 = getelementptr inbounds [1 x float]* %165, i32 0, i64 0, !dbg !5837 ; [#uses=1 type=float*] [debug line = 163:14]
  %167 = load float* %166, align 4, !dbg !5837    ; [#uses=1 type=float] [debug line = 163:14]
  %168 = load i32* %ci, align 4, !dbg !5837       ; [#uses=1 type=i32] [debug line = 163:14]
  %169 = sext i32 %168 to i64, !dbg !5837         ; [#uses=1 type=i64] [debug line = 163:14]
  %170 = load i32* %co, align 4, !dbg !5837       ; [#uses=1 type=i32] [debug line = 163:14]
  %171 = sext i32 %170 to i64, !dbg !5837         ; [#uses=1 type=i64] [debug line = 163:14]
  %172 = getelementptr inbounds [24 x [24 x [1 x [1 x float]]]]* @ShuffleConvs_0_ShuffleUnit0_2_conv1_weight, i32 0, i64 %171, !dbg !5837 ; [#uses=1 type=[24 x [1 x [1 x float]]]*] [debug line = 163:14]
  %173 = getelementptr inbounds [24 x [1 x [1 x float]]]* %172, i32 0, i64 %169, !dbg !5837 ; [#uses=1 type=[1 x [1 x float]]*] [debug line = 163:14]
  %174 = getelementptr inbounds [1 x [1 x float]]* %173, i32 0, i64 0, !dbg !5837 ; [#uses=1 type=[1 x float]*] [debug line = 163:14]
  %175 = getelementptr inbounds [1 x float]* %174, i32 0, i64 0, !dbg !5837 ; [#uses=1 type=float*] [debug line = 163:14]
  store float %167, float* %175, align 4, !dbg !5837 ; [debug line = 163:14]
  %176 = load i32* %ci, align 4, !dbg !5838       ; [#uses=1 type=i32] [debug line = 164:14]
  %177 = sext i32 %176 to i64, !dbg !5838         ; [#uses=1 type=i64] [debug line = 164:14]
  %178 = load i32* %co, align 4, !dbg !5838       ; [#uses=1 type=i32] [debug line = 164:14]
  %179 = add nsw i32 %178, 192, !dbg !5838        ; [#uses=1 type=i32] [debug line = 164:14]
  %180 = sext i32 %179 to i64, !dbg !5838         ; [#uses=1 type=i64] [debug line = 164:14]
  %181 = load [24 x [1 x [1 x float]]]** %4, align 8, !dbg !5838 ; [#uses=1 type=[24 x [1 x [1 x float]]]*] [debug line = 164:14]
  %182 = getelementptr inbounds [24 x [1 x [1 x float]]]* %181, i64 %180, !dbg !5838 ; [#uses=1 type=[24 x [1 x [1 x float]]]*] [debug line = 164:14]
  %183 = getelementptr inbounds [24 x [1 x [1 x float]]]* %182, i32 0, i64 %177, !dbg !5838 ; [#uses=1 type=[1 x [1 x float]]*] [debug line = 164:14]
  %184 = getelementptr inbounds [1 x [1 x float]]* %183, i32 0, i64 0, !dbg !5838 ; [#uses=1 type=[1 x float]*] [debug line = 164:14]
  %185 = getelementptr inbounds [1 x float]* %184, i32 0, i64 0, !dbg !5838 ; [#uses=1 type=float*] [debug line = 164:14]
  %186 = load float* %185, align 4, !dbg !5838    ; [#uses=1 type=float] [debug line = 164:14]
  %187 = load i32* %ci, align 4, !dbg !5838       ; [#uses=1 type=i32] [debug line = 164:14]
  %188 = sext i32 %187 to i64, !dbg !5838         ; [#uses=1 type=i64] [debug line = 164:14]
  %189 = load i32* %co, align 4, !dbg !5838       ; [#uses=1 type=i32] [debug line = 164:14]
  %190 = sext i32 %189 to i64, !dbg !5838         ; [#uses=1 type=i64] [debug line = 164:14]
  %191 = getelementptr inbounds [24 x [24 x [1 x [1 x float]]]]* @ShuffleConvs_0_ShuffleUnit0_2_conv3_weight, i32 0, i64 %190, !dbg !5838 ; [#uses=1 type=[24 x [1 x [1 x float]]]*] [debug line = 164:14]
  %192 = getelementptr inbounds [24 x [1 x [1 x float]]]* %191, i32 0, i64 %188, !dbg !5838 ; [#uses=1 type=[1 x [1 x float]]*] [debug line = 164:14]
  %193 = getelementptr inbounds [1 x [1 x float]]* %192, i32 0, i64 0, !dbg !5838 ; [#uses=1 type=[1 x float]*] [debug line = 164:14]
  %194 = getelementptr inbounds [1 x float]* %193, i32 0, i64 0, !dbg !5838 ; [#uses=1 type=float*] [debug line = 164:14]
  store float %186, float* %194, align 4, !dbg !5838 ; [debug line = 164:14]
  call void @llvm.dbg.declare(metadata !{i32* %i}, metadata !5839), !dbg !5841 ; [debug line = 166:22] [debug variable = i]
  store i32 0, i32* %i, align 4, !dbg !5842       ; [debug line = 166:27]
  br label %195, !dbg !5842                       ; [debug line = 166:27]

; <label>:195                                     ; preds = %769, %24
  %196 = load i32* %i, align 4, !dbg !5842        ; [#uses=1 type=i32] [debug line = 166:27]
  %197 = icmp slt i32 %196, 4, !dbg !5842         ; [#uses=1 type=i1] [debug line = 166:27]
  br i1 %197, label %198, label %772, !dbg !5842  ; [debug line = 166:27]

; <label>:198                                     ; preds = %195
  %199 = load i32* %ci, align 4, !dbg !5843       ; [#uses=1 type=i32] [debug line = 167:14]
  %200 = sext i32 %199 to i64, !dbg !5843         ; [#uses=1 type=i64] [debug line = 167:14]
  %201 = load i32* %co, align 4, !dbg !5843       ; [#uses=1 type=i32] [debug line = 167:14]
  %202 = add nsw i32 %201, 216, !dbg !5843        ; [#uses=1 type=i32] [debug line = 167:14]
  %203 = load i32* %i, align 4, !dbg !5843        ; [#uses=1 type=i32] [debug line = 167:14]
  %204 = mul nsw i32 24, %203, !dbg !5843         ; [#uses=1 type=i32] [debug line = 167:14]
  %205 = add nsw i32 %202, %204, !dbg !5843       ; [#uses=1 type=i32] [debug line = 167:14]
  %206 = sext i32 %205 to i64, !dbg !5843         ; [#uses=1 type=i64] [debug line = 167:14]
  %207 = load [24 x [1 x [1 x float]]]** %4, align 8, !dbg !5843 ; [#uses=1 type=[24 x [1 x [1 x float]]]*] [debug line = 167:14]
  %208 = getelementptr inbounds [24 x [1 x [1 x float]]]* %207, i64 %206, !dbg !5843 ; [#uses=1 type=[24 x [1 x [1 x float]]]*] [debug line = 167:14]
  %209 = getelementptr inbounds [24 x [1 x [1 x float]]]* %208, i32 0, i64 %200, !dbg !5843 ; [#uses=1 type=[1 x [1 x float]]*] [debug line = 167:14]
  %210 = getelementptr inbounds [1 x [1 x float]]* %209, i32 0, i64 0, !dbg !5843 ; [#uses=1 type=[1 x float]*] [debug line = 167:14]
  %211 = getelementptr inbounds [1 x float]* %210, i32 0, i64 0, !dbg !5843 ; [#uses=1 type=float*] [debug line = 167:14]
  %212 = load float* %211, align 4, !dbg !5843    ; [#uses=1 type=float] [debug line = 167:14]
  %213 = load i32* %ci, align 4, !dbg !5843       ; [#uses=1 type=i32] [debug line = 167:14]
  %214 = load i32* %co, align 4, !dbg !5843       ; [#uses=1 type=i32] [debug line = 167:14]
  %215 = srem i32 %214, 2, !dbg !5843             ; [#uses=1 type=i32] [debug line = 167:14]
  %216 = mul nsw i32 24, %215, !dbg !5843         ; [#uses=1 type=i32] [debug line = 167:14]
  %217 = add nsw i32 %213, %216, !dbg !5843       ; [#uses=1 type=i32] [debug line = 167:14]
  %218 = sext i32 %217 to i64, !dbg !5843         ; [#uses=1 type=i64] [debug line = 167:14]
  %219 = load i32* %co, align 4, !dbg !5843       ; [#uses=1 type=i32] [debug line = 167:14]
  %220 = sdiv i32 %219, 2, !dbg !5843             ; [#uses=1 type=i32] [debug line = 167:14]
  %221 = load i32* %i, align 4, !dbg !5843        ; [#uses=1 type=i32] [debug line = 167:14]
  %222 = mul nsw i32 %221, 12, !dbg !5843         ; [#uses=1 type=i32] [debug line = 167:14]
  %223 = add nsw i32 %220, %222, !dbg !5843       ; [#uses=1 type=i32] [debug line = 167:14]
  %224 = sext i32 %223 to i64, !dbg !5843         ; [#uses=1 type=i64] [debug line = 167:14]
  %225 = getelementptr inbounds [48 x [48 x [1 x [1 x float]]]]* @ShuffleConvs_1_DownsampleUnit_conv1r_weight, i32 0, i64 %224, !dbg !5843 ; [#uses=1 type=[48 x [1 x [1 x float]]]*] [debug line = 167:14]
  %226 = getelementptr inbounds [48 x [1 x [1 x float]]]* %225, i32 0, i64 %218, !dbg !5843 ; [#uses=1 type=[1 x [1 x float]]*] [debug line = 167:14]
  %227 = getelementptr inbounds [1 x [1 x float]]* %226, i32 0, i64 0, !dbg !5843 ; [#uses=1 type=[1 x float]*] [debug line = 167:14]
  %228 = getelementptr inbounds [1 x float]* %227, i32 0, i64 0, !dbg !5843 ; [#uses=1 type=float*] [debug line = 167:14]
  store float %212, float* %228, align 4, !dbg !5843 ; [debug line = 167:14]
  %229 = load i32* %ci, align 4, !dbg !5845       ; [#uses=1 type=i32] [debug line = 168:14]
  %230 = sext i32 %229 to i64, !dbg !5845         ; [#uses=1 type=i64] [debug line = 168:14]
  %231 = load i32* %co, align 4, !dbg !5845       ; [#uses=1 type=i32] [debug line = 168:14]
  %232 = add nsw i32 %231, 312, !dbg !5845        ; [#uses=1 type=i32] [debug line = 168:14]
  %233 = load i32* %i, align 4, !dbg !5845        ; [#uses=1 type=i32] [debug line = 168:14]
  %234 = mul nsw i32 24, %233, !dbg !5845         ; [#uses=1 type=i32] [debug line = 168:14]
  %235 = add nsw i32 %232, %234, !dbg !5845       ; [#uses=1 type=i32] [debug line = 168:14]
  %236 = sext i32 %235 to i64, !dbg !5845         ; [#uses=1 type=i64] [debug line = 168:14]
  %237 = load [24 x [1 x [1 x float]]]** %4, align 8, !dbg !5845 ; [#uses=1 type=[24 x [1 x [1 x float]]]*] [debug line = 168:14]
  %238 = getelementptr inbounds [24 x [1 x [1 x float]]]* %237, i64 %236, !dbg !5845 ; [#uses=1 type=[24 x [1 x [1 x float]]]*] [debug line = 168:14]
  %239 = getelementptr inbounds [24 x [1 x [1 x float]]]* %238, i32 0, i64 %230, !dbg !5845 ; [#uses=1 type=[1 x [1 x float]]*] [debug line = 168:14]
  %240 = getelementptr inbounds [1 x [1 x float]]* %239, i32 0, i64 0, !dbg !5845 ; [#uses=1 type=[1 x float]*] [debug line = 168:14]
  %241 = getelementptr inbounds [1 x float]* %240, i32 0, i64 0, !dbg !5845 ; [#uses=1 type=float*] [debug line = 168:14]
  %242 = load float* %241, align 4, !dbg !5845    ; [#uses=1 type=float] [debug line = 168:14]
  %243 = load i32* %ci, align 4, !dbg !5845       ; [#uses=1 type=i32] [debug line = 168:14]
  %244 = load i32* %co, align 4, !dbg !5845       ; [#uses=1 type=i32] [debug line = 168:14]
  %245 = srem i32 %244, 2, !dbg !5845             ; [#uses=1 type=i32] [debug line = 168:14]
  %246 = mul nsw i32 24, %245, !dbg !5845         ; [#uses=1 type=i32] [debug line = 168:14]
  %247 = add nsw i32 %243, %246, !dbg !5845       ; [#uses=1 type=i32] [debug line = 168:14]
  %248 = sext i32 %247 to i64, !dbg !5845         ; [#uses=1 type=i64] [debug line = 168:14]
  %249 = load i32* %co, align 4, !dbg !5845       ; [#uses=1 type=i32] [debug line = 168:14]
  %250 = sdiv i32 %249, 2, !dbg !5845             ; [#uses=1 type=i32] [debug line = 168:14]
  %251 = load i32* %i, align 4, !dbg !5845        ; [#uses=1 type=i32] [debug line = 168:14]
  %252 = mul nsw i32 %251, 12, !dbg !5845         ; [#uses=1 type=i32] [debug line = 168:14]
  %253 = add nsw i32 %250, %252, !dbg !5845       ; [#uses=1 type=i32] [debug line = 168:14]
  %254 = sext i32 %253 to i64, !dbg !5845         ; [#uses=1 type=i64] [debug line = 168:14]
  %255 = getelementptr inbounds [48 x [48 x [1 x [1 x float]]]]* @ShuffleConvs_1_DownsampleUnit_conv3r_weight, i32 0, i64 %254, !dbg !5845 ; [#uses=1 type=[48 x [1 x [1 x float]]]*] [debug line = 168:14]
  %256 = getelementptr inbounds [48 x [1 x [1 x float]]]* %255, i32 0, i64 %248, !dbg !5845 ; [#uses=1 type=[1 x [1 x float]]*] [debug line = 168:14]
  %257 = getelementptr inbounds [1 x [1 x float]]* %256, i32 0, i64 0, !dbg !5845 ; [#uses=1 type=[1 x float]*] [debug line = 168:14]
  %258 = getelementptr inbounds [1 x float]* %257, i32 0, i64 0, !dbg !5845 ; [#uses=1 type=float*] [debug line = 168:14]
  store float %242, float* %258, align 4, !dbg !5845 ; [debug line = 168:14]
  %259 = load i32* %ci, align 4, !dbg !5846       ; [#uses=1 type=i32] [debug line = 169:14]
  %260 = sext i32 %259 to i64, !dbg !5846         ; [#uses=1 type=i64] [debug line = 169:14]
  %261 = load i32* %co, align 4, !dbg !5846       ; [#uses=1 type=i32] [debug line = 169:14]
  %262 = add nsw i32 %261, 408, !dbg !5846        ; [#uses=1 type=i32] [debug line = 169:14]
  %263 = load i32* %i, align 4, !dbg !5846        ; [#uses=1 type=i32] [debug line = 169:14]
  %264 = mul nsw i32 24, %263, !dbg !5846         ; [#uses=1 type=i32] [debug line = 169:14]
  %265 = add nsw i32 %262, %264, !dbg !5846       ; [#uses=1 type=i32] [debug line = 169:14]
  %266 = sext i32 %265 to i64, !dbg !5846         ; [#uses=1 type=i64] [debug line = 169:14]
  %267 = load [24 x [1 x [1 x float]]]** %4, align 8, !dbg !5846 ; [#uses=1 type=[24 x [1 x [1 x float]]]*] [debug line = 169:14]
  %268 = getelementptr inbounds [24 x [1 x [1 x float]]]* %267, i64 %266, !dbg !5846 ; [#uses=1 type=[24 x [1 x [1 x float]]]*] [debug line = 169:14]
  %269 = getelementptr inbounds [24 x [1 x [1 x float]]]* %268, i32 0, i64 %260, !dbg !5846 ; [#uses=1 type=[1 x [1 x float]]*] [debug line = 169:14]
  %270 = getelementptr inbounds [1 x [1 x float]]* %269, i32 0, i64 0, !dbg !5846 ; [#uses=1 type=[1 x float]*] [debug line = 169:14]
  %271 = getelementptr inbounds [1 x float]* %270, i32 0, i64 0, !dbg !5846 ; [#uses=1 type=float*] [debug line = 169:14]
  %272 = load float* %271, align 4, !dbg !5846    ; [#uses=1 type=float] [debug line = 169:14]
  %273 = load i32* %ci, align 4, !dbg !5846       ; [#uses=1 type=i32] [debug line = 169:14]
  %274 = load i32* %co, align 4, !dbg !5846       ; [#uses=1 type=i32] [debug line = 169:14]
  %275 = srem i32 %274, 2, !dbg !5846             ; [#uses=1 type=i32] [debug line = 169:14]
  %276 = mul nsw i32 24, %275, !dbg !5846         ; [#uses=1 type=i32] [debug line = 169:14]
  %277 = add nsw i32 %273, %276, !dbg !5846       ; [#uses=1 type=i32] [debug line = 169:14]
  %278 = sext i32 %277 to i64, !dbg !5846         ; [#uses=1 type=i64] [debug line = 169:14]
  %279 = load i32* %co, align 4, !dbg !5846       ; [#uses=1 type=i32] [debug line = 169:14]
  %280 = sdiv i32 %279, 2, !dbg !5846             ; [#uses=1 type=i32] [debug line = 169:14]
  %281 = load i32* %i, align 4, !dbg !5846        ; [#uses=1 type=i32] [debug line = 169:14]
  %282 = mul nsw i32 %281, 12, !dbg !5846         ; [#uses=1 type=i32] [debug line = 169:14]
  %283 = add nsw i32 %280, %282, !dbg !5846       ; [#uses=1 type=i32] [debug line = 169:14]
  %284 = sext i32 %283 to i64, !dbg !5846         ; [#uses=1 type=i64] [debug line = 169:14]
  %285 = getelementptr inbounds [48 x [48 x [1 x [1 x float]]]]* @ShuffleConvs_1_DownsampleUnit_conv2l_weight, i32 0, i64 %284, !dbg !5846 ; [#uses=1 type=[48 x [1 x [1 x float]]]*] [debug line = 169:14]
  %286 = getelementptr inbounds [48 x [1 x [1 x float]]]* %285, i32 0, i64 %278, !dbg !5846 ; [#uses=1 type=[1 x [1 x float]]*] [debug line = 169:14]
  %287 = getelementptr inbounds [1 x [1 x float]]* %286, i32 0, i64 0, !dbg !5846 ; [#uses=1 type=[1 x float]*] [debug line = 169:14]
  %288 = getelementptr inbounds [1 x float]* %287, i32 0, i64 0, !dbg !5846 ; [#uses=1 type=float*] [debug line = 169:14]
  store float %272, float* %288, align 4, !dbg !5846 ; [debug line = 169:14]
  %289 = load i32* %ci, align 4, !dbg !5847       ; [#uses=1 type=i32] [debug line = 170:14]
  %290 = sext i32 %289 to i64, !dbg !5847         ; [#uses=1 type=i64] [debug line = 170:14]
  %291 = load i32* %co, align 4, !dbg !5847       ; [#uses=1 type=i32] [debug line = 170:14]
  %292 = add nsw i32 %291, 504, !dbg !5847        ; [#uses=1 type=i32] [debug line = 170:14]
  %293 = load i32* %i, align 4, !dbg !5847        ; [#uses=1 type=i32] [debug line = 170:14]
  %294 = mul nsw i32 24, %293, !dbg !5847         ; [#uses=1 type=i32] [debug line = 170:14]
  %295 = add nsw i32 %292, %294, !dbg !5847       ; [#uses=1 type=i32] [debug line = 170:14]
  %296 = sext i32 %295 to i64, !dbg !5847         ; [#uses=1 type=i64] [debug line = 170:14]
  %297 = load [24 x [1 x [1 x float]]]** %4, align 8, !dbg !5847 ; [#uses=1 type=[24 x [1 x [1 x float]]]*] [debug line = 170:14]
  %298 = getelementptr inbounds [24 x [1 x [1 x float]]]* %297, i64 %296, !dbg !5847 ; [#uses=1 type=[24 x [1 x [1 x float]]]*] [debug line = 170:14]
  %299 = getelementptr inbounds [24 x [1 x [1 x float]]]* %298, i32 0, i64 %290, !dbg !5847 ; [#uses=1 type=[1 x [1 x float]]*] [debug line = 170:14]
  %300 = getelementptr inbounds [1 x [1 x float]]* %299, i32 0, i64 0, !dbg !5847 ; [#uses=1 type=[1 x float]*] [debug line = 170:14]
  %301 = getelementptr inbounds [1 x float]* %300, i32 0, i64 0, !dbg !5847 ; [#uses=1 type=float*] [debug line = 170:14]
  %302 = load float* %301, align 4, !dbg !5847    ; [#uses=1 type=float] [debug line = 170:14]
  %303 = load i32* %ci, align 4, !dbg !5847       ; [#uses=1 type=i32] [debug line = 170:14]
  %304 = load i32* %co, align 4, !dbg !5847       ; [#uses=1 type=i32] [debug line = 170:14]
  %305 = srem i32 %304, 2, !dbg !5847             ; [#uses=1 type=i32] [debug line = 170:14]
  %306 = mul nsw i32 24, %305, !dbg !5847         ; [#uses=1 type=i32] [debug line = 170:14]
  %307 = add nsw i32 %303, %306, !dbg !5847       ; [#uses=1 type=i32] [debug line = 170:14]
  %308 = sext i32 %307 to i64, !dbg !5847         ; [#uses=1 type=i64] [debug line = 170:14]
  %309 = load i32* %co, align 4, !dbg !5847       ; [#uses=1 type=i32] [debug line = 170:14]
  %310 = sdiv i32 %309, 2, !dbg !5847             ; [#uses=1 type=i32] [debug line = 170:14]
  %311 = load i32* %i, align 4, !dbg !5847        ; [#uses=1 type=i32] [debug line = 170:14]
  %312 = mul nsw i32 %311, 12, !dbg !5847         ; [#uses=1 type=i32] [debug line = 170:14]
  %313 = add nsw i32 %310, %312, !dbg !5847       ; [#uses=1 type=i32] [debug line = 170:14]
  %314 = sext i32 %313 to i64, !dbg !5847         ; [#uses=1 type=i64] [debug line = 170:14]
  %315 = getelementptr inbounds [48 x [48 x [1 x [1 x float]]]]* @ShuffleConvs_1_ShuffleUnit1_0_conv1_weight, i32 0, i64 %314, !dbg !5847 ; [#uses=1 type=[48 x [1 x [1 x float]]]*] [debug line = 170:14]
  %316 = getelementptr inbounds [48 x [1 x [1 x float]]]* %315, i32 0, i64 %308, !dbg !5847 ; [#uses=1 type=[1 x [1 x float]]*] [debug line = 170:14]
  %317 = getelementptr inbounds [1 x [1 x float]]* %316, i32 0, i64 0, !dbg !5847 ; [#uses=1 type=[1 x float]*] [debug line = 170:14]
  %318 = getelementptr inbounds [1 x float]* %317, i32 0, i64 0, !dbg !5847 ; [#uses=1 type=float*] [debug line = 170:14]
  store float %302, float* %318, align 4, !dbg !5847 ; [debug line = 170:14]
  %319 = load i32* %ci, align 4, !dbg !5848       ; [#uses=1 type=i32] [debug line = 171:14]
  %320 = sext i32 %319 to i64, !dbg !5848         ; [#uses=1 type=i64] [debug line = 171:14]
  %321 = load i32* %co, align 4, !dbg !5848       ; [#uses=1 type=i32] [debug line = 171:14]
  %322 = add nsw i32 %321, 600, !dbg !5848        ; [#uses=1 type=i32] [debug line = 171:14]
  %323 = load i32* %i, align 4, !dbg !5848        ; [#uses=1 type=i32] [debug line = 171:14]
  %324 = mul nsw i32 24, %323, !dbg !5848         ; [#uses=1 type=i32] [debug line = 171:14]
  %325 = add nsw i32 %322, %324, !dbg !5848       ; [#uses=1 type=i32] [debug line = 171:14]
  %326 = sext i32 %325 to i64, !dbg !5848         ; [#uses=1 type=i64] [debug line = 171:14]
  %327 = load [24 x [1 x [1 x float]]]** %4, align 8, !dbg !5848 ; [#uses=1 type=[24 x [1 x [1 x float]]]*] [debug line = 171:14]
  %328 = getelementptr inbounds [24 x [1 x [1 x float]]]* %327, i64 %326, !dbg !5848 ; [#uses=1 type=[24 x [1 x [1 x float]]]*] [debug line = 171:14]
  %329 = getelementptr inbounds [24 x [1 x [1 x float]]]* %328, i32 0, i64 %320, !dbg !5848 ; [#uses=1 type=[1 x [1 x float]]*] [debug line = 171:14]
  %330 = getelementptr inbounds [1 x [1 x float]]* %329, i32 0, i64 0, !dbg !5848 ; [#uses=1 type=[1 x float]*] [debug line = 171:14]
  %331 = getelementptr inbounds [1 x float]* %330, i32 0, i64 0, !dbg !5848 ; [#uses=1 type=float*] [debug line = 171:14]
  %332 = load float* %331, align 4, !dbg !5848    ; [#uses=1 type=float] [debug line = 171:14]
  %333 = load i32* %ci, align 4, !dbg !5848       ; [#uses=1 type=i32] [debug line = 171:14]
  %334 = load i32* %co, align 4, !dbg !5848       ; [#uses=1 type=i32] [debug line = 171:14]
  %335 = srem i32 %334, 2, !dbg !5848             ; [#uses=1 type=i32] [debug line = 171:14]
  %336 = mul nsw i32 24, %335, !dbg !5848         ; [#uses=1 type=i32] [debug line = 171:14]
  %337 = add nsw i32 %333, %336, !dbg !5848       ; [#uses=1 type=i32] [debug line = 171:14]
  %338 = sext i32 %337 to i64, !dbg !5848         ; [#uses=1 type=i64] [debug line = 171:14]
  %339 = load i32* %co, align 4, !dbg !5848       ; [#uses=1 type=i32] [debug line = 171:14]
  %340 = sdiv i32 %339, 2, !dbg !5848             ; [#uses=1 type=i32] [debug line = 171:14]
  %341 = load i32* %i, align 4, !dbg !5848        ; [#uses=1 type=i32] [debug line = 171:14]
  %342 = mul nsw i32 %341, 12, !dbg !5848         ; [#uses=1 type=i32] [debug line = 171:14]
  %343 = add nsw i32 %340, %342, !dbg !5848       ; [#uses=1 type=i32] [debug line = 171:14]
  %344 = sext i32 %343 to i64, !dbg !5848         ; [#uses=1 type=i64] [debug line = 171:14]
  %345 = getelementptr inbounds [48 x [48 x [1 x [1 x float]]]]* @ShuffleConvs_1_ShuffleUnit1_0_conv3_weight, i32 0, i64 %344, !dbg !5848 ; [#uses=1 type=[48 x [1 x [1 x float]]]*] [debug line = 171:14]
  %346 = getelementptr inbounds [48 x [1 x [1 x float]]]* %345, i32 0, i64 %338, !dbg !5848 ; [#uses=1 type=[1 x [1 x float]]*] [debug line = 171:14]
  %347 = getelementptr inbounds [1 x [1 x float]]* %346, i32 0, i64 0, !dbg !5848 ; [#uses=1 type=[1 x float]*] [debug line = 171:14]
  %348 = getelementptr inbounds [1 x float]* %347, i32 0, i64 0, !dbg !5848 ; [#uses=1 type=float*] [debug line = 171:14]
  store float %332, float* %348, align 4, !dbg !5848 ; [debug line = 171:14]
  %349 = load i32* %ci, align 4, !dbg !5849       ; [#uses=1 type=i32] [debug line = 172:14]
  %350 = sext i32 %349 to i64, !dbg !5849         ; [#uses=1 type=i64] [debug line = 172:14]
  %351 = load i32* %co, align 4, !dbg !5849       ; [#uses=1 type=i32] [debug line = 172:14]
  %352 = add nsw i32 %351, 696, !dbg !5849        ; [#uses=1 type=i32] [debug line = 172:14]
  %353 = load i32* %i, align 4, !dbg !5849        ; [#uses=1 type=i32] [debug line = 172:14]
  %354 = mul nsw i32 24, %353, !dbg !5849         ; [#uses=1 type=i32] [debug line = 172:14]
  %355 = add nsw i32 %352, %354, !dbg !5849       ; [#uses=1 type=i32] [debug line = 172:14]
  %356 = sext i32 %355 to i64, !dbg !5849         ; [#uses=1 type=i64] [debug line = 172:14]
  %357 = load [24 x [1 x [1 x float]]]** %4, align 8, !dbg !5849 ; [#uses=1 type=[24 x [1 x [1 x float]]]*] [debug line = 172:14]
  %358 = getelementptr inbounds [24 x [1 x [1 x float]]]* %357, i64 %356, !dbg !5849 ; [#uses=1 type=[24 x [1 x [1 x float]]]*] [debug line = 172:14]
  %359 = getelementptr inbounds [24 x [1 x [1 x float]]]* %358, i32 0, i64 %350, !dbg !5849 ; [#uses=1 type=[1 x [1 x float]]*] [debug line = 172:14]
  %360 = getelementptr inbounds [1 x [1 x float]]* %359, i32 0, i64 0, !dbg !5849 ; [#uses=1 type=[1 x float]*] [debug line = 172:14]
  %361 = getelementptr inbounds [1 x float]* %360, i32 0, i64 0, !dbg !5849 ; [#uses=1 type=float*] [debug line = 172:14]
  %362 = load float* %361, align 4, !dbg !5849    ; [#uses=1 type=float] [debug line = 172:14]
  %363 = load i32* %ci, align 4, !dbg !5849       ; [#uses=1 type=i32] [debug line = 172:14]
  %364 = load i32* %co, align 4, !dbg !5849       ; [#uses=1 type=i32] [debug line = 172:14]
  %365 = srem i32 %364, 2, !dbg !5849             ; [#uses=1 type=i32] [debug line = 172:14]
  %366 = mul nsw i32 24, %365, !dbg !5849         ; [#uses=1 type=i32] [debug line = 172:14]
  %367 = add nsw i32 %363, %366, !dbg !5849       ; [#uses=1 type=i32] [debug line = 172:14]
  %368 = sext i32 %367 to i64, !dbg !5849         ; [#uses=1 type=i64] [debug line = 172:14]
  %369 = load i32* %co, align 4, !dbg !5849       ; [#uses=1 type=i32] [debug line = 172:14]
  %370 = sdiv i32 %369, 2, !dbg !5849             ; [#uses=1 type=i32] [debug line = 172:14]
  %371 = load i32* %i, align 4, !dbg !5849        ; [#uses=1 type=i32] [debug line = 172:14]
  %372 = mul nsw i32 %371, 12, !dbg !5849         ; [#uses=1 type=i32] [debug line = 172:14]
  %373 = add nsw i32 %370, %372, !dbg !5849       ; [#uses=1 type=i32] [debug line = 172:14]
  %374 = sext i32 %373 to i64, !dbg !5849         ; [#uses=1 type=i64] [debug line = 172:14]
  %375 = getelementptr inbounds [48 x [48 x [1 x [1 x float]]]]* @ShuffleConvs_1_ShuffleUnit1_1_conv1_weight, i32 0, i64 %374, !dbg !5849 ; [#uses=1 type=[48 x [1 x [1 x float]]]*] [debug line = 172:14]
  %376 = getelementptr inbounds [48 x [1 x [1 x float]]]* %375, i32 0, i64 %368, !dbg !5849 ; [#uses=1 type=[1 x [1 x float]]*] [debug line = 172:14]
  %377 = getelementptr inbounds [1 x [1 x float]]* %376, i32 0, i64 0, !dbg !5849 ; [#uses=1 type=[1 x float]*] [debug line = 172:14]
  %378 = getelementptr inbounds [1 x float]* %377, i32 0, i64 0, !dbg !5849 ; [#uses=1 type=float*] [debug line = 172:14]
  store float %362, float* %378, align 4, !dbg !5849 ; [debug line = 172:14]
  %379 = load i32* %ci, align 4, !dbg !5850       ; [#uses=1 type=i32] [debug line = 173:14]
  %380 = sext i32 %379 to i64, !dbg !5850         ; [#uses=1 type=i64] [debug line = 173:14]
  %381 = load i32* %co, align 4, !dbg !5850       ; [#uses=1 type=i32] [debug line = 173:14]
  %382 = add nsw i32 %381, 792, !dbg !5850        ; [#uses=1 type=i32] [debug line = 173:14]
  %383 = load i32* %i, align 4, !dbg !5850        ; [#uses=1 type=i32] [debug line = 173:14]
  %384 = mul nsw i32 24, %383, !dbg !5850         ; [#uses=1 type=i32] [debug line = 173:14]
  %385 = add nsw i32 %382, %384, !dbg !5850       ; [#uses=1 type=i32] [debug line = 173:14]
  %386 = sext i32 %385 to i64, !dbg !5850         ; [#uses=1 type=i64] [debug line = 173:14]
  %387 = load [24 x [1 x [1 x float]]]** %4, align 8, !dbg !5850 ; [#uses=1 type=[24 x [1 x [1 x float]]]*] [debug line = 173:14]
  %388 = getelementptr inbounds [24 x [1 x [1 x float]]]* %387, i64 %386, !dbg !5850 ; [#uses=1 type=[24 x [1 x [1 x float]]]*] [debug line = 173:14]
  %389 = getelementptr inbounds [24 x [1 x [1 x float]]]* %388, i32 0, i64 %380, !dbg !5850 ; [#uses=1 type=[1 x [1 x float]]*] [debug line = 173:14]
  %390 = getelementptr inbounds [1 x [1 x float]]* %389, i32 0, i64 0, !dbg !5850 ; [#uses=1 type=[1 x float]*] [debug line = 173:14]
  %391 = getelementptr inbounds [1 x float]* %390, i32 0, i64 0, !dbg !5850 ; [#uses=1 type=float*] [debug line = 173:14]
  %392 = load float* %391, align 4, !dbg !5850    ; [#uses=1 type=float] [debug line = 173:14]
  %393 = load i32* %ci, align 4, !dbg !5850       ; [#uses=1 type=i32] [debug line = 173:14]
  %394 = load i32* %co, align 4, !dbg !5850       ; [#uses=1 type=i32] [debug line = 173:14]
  %395 = srem i32 %394, 2, !dbg !5850             ; [#uses=1 type=i32] [debug line = 173:14]
  %396 = mul nsw i32 24, %395, !dbg !5850         ; [#uses=1 type=i32] [debug line = 173:14]
  %397 = add nsw i32 %393, %396, !dbg !5850       ; [#uses=1 type=i32] [debug line = 173:14]
  %398 = sext i32 %397 to i64, !dbg !5850         ; [#uses=1 type=i64] [debug line = 173:14]
  %399 = load i32* %co, align 4, !dbg !5850       ; [#uses=1 type=i32] [debug line = 173:14]
  %400 = sdiv i32 %399, 2, !dbg !5850             ; [#uses=1 type=i32] [debug line = 173:14]
  %401 = load i32* %i, align 4, !dbg !5850        ; [#uses=1 type=i32] [debug line = 173:14]
  %402 = mul nsw i32 %401, 12, !dbg !5850         ; [#uses=1 type=i32] [debug line = 173:14]
  %403 = add nsw i32 %400, %402, !dbg !5850       ; [#uses=1 type=i32] [debug line = 173:14]
  %404 = sext i32 %403 to i64, !dbg !5850         ; [#uses=1 type=i64] [debug line = 173:14]
  %405 = getelementptr inbounds [48 x [48 x [1 x [1 x float]]]]* @ShuffleConvs_1_ShuffleUnit1_1_conv3_weight, i32 0, i64 %404, !dbg !5850 ; [#uses=1 type=[48 x [1 x [1 x float]]]*] [debug line = 173:14]
  %406 = getelementptr inbounds [48 x [1 x [1 x float]]]* %405, i32 0, i64 %398, !dbg !5850 ; [#uses=1 type=[1 x [1 x float]]*] [debug line = 173:14]
  %407 = getelementptr inbounds [1 x [1 x float]]* %406, i32 0, i64 0, !dbg !5850 ; [#uses=1 type=[1 x float]*] [debug line = 173:14]
  %408 = getelementptr inbounds [1 x float]* %407, i32 0, i64 0, !dbg !5850 ; [#uses=1 type=float*] [debug line = 173:14]
  store float %392, float* %408, align 4, !dbg !5850 ; [debug line = 173:14]
  %409 = load i32* %ci, align 4, !dbg !5851       ; [#uses=1 type=i32] [debug line = 174:14]
  %410 = sext i32 %409 to i64, !dbg !5851         ; [#uses=1 type=i64] [debug line = 174:14]
  %411 = load i32* %co, align 4, !dbg !5851       ; [#uses=1 type=i32] [debug line = 174:14]
  %412 = add nsw i32 %411, 888, !dbg !5851        ; [#uses=1 type=i32] [debug line = 174:14]
  %413 = load i32* %i, align 4, !dbg !5851        ; [#uses=1 type=i32] [debug line = 174:14]
  %414 = mul nsw i32 24, %413, !dbg !5851         ; [#uses=1 type=i32] [debug line = 174:14]
  %415 = add nsw i32 %412, %414, !dbg !5851       ; [#uses=1 type=i32] [debug line = 174:14]
  %416 = sext i32 %415 to i64, !dbg !5851         ; [#uses=1 type=i64] [debug line = 174:14]
  %417 = load [24 x [1 x [1 x float]]]** %4, align 8, !dbg !5851 ; [#uses=1 type=[24 x [1 x [1 x float]]]*] [debug line = 174:14]
  %418 = getelementptr inbounds [24 x [1 x [1 x float]]]* %417, i64 %416, !dbg !5851 ; [#uses=1 type=[24 x [1 x [1 x float]]]*] [debug line = 174:14]
  %419 = getelementptr inbounds [24 x [1 x [1 x float]]]* %418, i32 0, i64 %410, !dbg !5851 ; [#uses=1 type=[1 x [1 x float]]*] [debug line = 174:14]
  %420 = getelementptr inbounds [1 x [1 x float]]* %419, i32 0, i64 0, !dbg !5851 ; [#uses=1 type=[1 x float]*] [debug line = 174:14]
  %421 = getelementptr inbounds [1 x float]* %420, i32 0, i64 0, !dbg !5851 ; [#uses=1 type=float*] [debug line = 174:14]
  %422 = load float* %421, align 4, !dbg !5851    ; [#uses=1 type=float] [debug line = 174:14]
  %423 = load i32* %ci, align 4, !dbg !5851       ; [#uses=1 type=i32] [debug line = 174:14]
  %424 = load i32* %co, align 4, !dbg !5851       ; [#uses=1 type=i32] [debug line = 174:14]
  %425 = srem i32 %424, 2, !dbg !5851             ; [#uses=1 type=i32] [debug line = 174:14]
  %426 = mul nsw i32 24, %425, !dbg !5851         ; [#uses=1 type=i32] [debug line = 174:14]
  %427 = add nsw i32 %423, %426, !dbg !5851       ; [#uses=1 type=i32] [debug line = 174:14]
  %428 = sext i32 %427 to i64, !dbg !5851         ; [#uses=1 type=i64] [debug line = 174:14]
  %429 = load i32* %co, align 4, !dbg !5851       ; [#uses=1 type=i32] [debug line = 174:14]
  %430 = sdiv i32 %429, 2, !dbg !5851             ; [#uses=1 type=i32] [debug line = 174:14]
  %431 = load i32* %i, align 4, !dbg !5851        ; [#uses=1 type=i32] [debug line = 174:14]
  %432 = mul nsw i32 %431, 12, !dbg !5851         ; [#uses=1 type=i32] [debug line = 174:14]
  %433 = add nsw i32 %430, %432, !dbg !5851       ; [#uses=1 type=i32] [debug line = 174:14]
  %434 = sext i32 %433 to i64, !dbg !5851         ; [#uses=1 type=i64] [debug line = 174:14]
  %435 = getelementptr inbounds [48 x [48 x [1 x [1 x float]]]]* @ShuffleConvs_1_ShuffleUnit1_2_conv1_weight, i32 0, i64 %434, !dbg !5851 ; [#uses=1 type=[48 x [1 x [1 x float]]]*] [debug line = 174:14]
  %436 = getelementptr inbounds [48 x [1 x [1 x float]]]* %435, i32 0, i64 %428, !dbg !5851 ; [#uses=1 type=[1 x [1 x float]]*] [debug line = 174:14]
  %437 = getelementptr inbounds [1 x [1 x float]]* %436, i32 0, i64 0, !dbg !5851 ; [#uses=1 type=[1 x float]*] [debug line = 174:14]
  %438 = getelementptr inbounds [1 x float]* %437, i32 0, i64 0, !dbg !5851 ; [#uses=1 type=float*] [debug line = 174:14]
  store float %422, float* %438, align 4, !dbg !5851 ; [debug line = 174:14]
  %439 = load i32* %ci, align 4, !dbg !5852       ; [#uses=1 type=i32] [debug line = 175:14]
  %440 = sext i32 %439 to i64, !dbg !5852         ; [#uses=1 type=i64] [debug line = 175:14]
  %441 = load i32* %co, align 4, !dbg !5852       ; [#uses=1 type=i32] [debug line = 175:14]
  %442 = add nsw i32 %441, 984, !dbg !5852        ; [#uses=1 type=i32] [debug line = 175:14]
  %443 = load i32* %i, align 4, !dbg !5852        ; [#uses=1 type=i32] [debug line = 175:14]
  %444 = mul nsw i32 24, %443, !dbg !5852         ; [#uses=1 type=i32] [debug line = 175:14]
  %445 = add nsw i32 %442, %444, !dbg !5852       ; [#uses=1 type=i32] [debug line = 175:14]
  %446 = sext i32 %445 to i64, !dbg !5852         ; [#uses=1 type=i64] [debug line = 175:14]
  %447 = load [24 x [1 x [1 x float]]]** %4, align 8, !dbg !5852 ; [#uses=1 type=[24 x [1 x [1 x float]]]*] [debug line = 175:14]
  %448 = getelementptr inbounds [24 x [1 x [1 x float]]]* %447, i64 %446, !dbg !5852 ; [#uses=1 type=[24 x [1 x [1 x float]]]*] [debug line = 175:14]
  %449 = getelementptr inbounds [24 x [1 x [1 x float]]]* %448, i32 0, i64 %440, !dbg !5852 ; [#uses=1 type=[1 x [1 x float]]*] [debug line = 175:14]
  %450 = getelementptr inbounds [1 x [1 x float]]* %449, i32 0, i64 0, !dbg !5852 ; [#uses=1 type=[1 x float]*] [debug line = 175:14]
  %451 = getelementptr inbounds [1 x float]* %450, i32 0, i64 0, !dbg !5852 ; [#uses=1 type=float*] [debug line = 175:14]
  %452 = load float* %451, align 4, !dbg !5852    ; [#uses=1 type=float] [debug line = 175:14]
  %453 = load i32* %ci, align 4, !dbg !5852       ; [#uses=1 type=i32] [debug line = 175:14]
  %454 = load i32* %co, align 4, !dbg !5852       ; [#uses=1 type=i32] [debug line = 175:14]
  %455 = srem i32 %454, 2, !dbg !5852             ; [#uses=1 type=i32] [debug line = 175:14]
  %456 = mul nsw i32 24, %455, !dbg !5852         ; [#uses=1 type=i32] [debug line = 175:14]
  %457 = add nsw i32 %453, %456, !dbg !5852       ; [#uses=1 type=i32] [debug line = 175:14]
  %458 = sext i32 %457 to i64, !dbg !5852         ; [#uses=1 type=i64] [debug line = 175:14]
  %459 = load i32* %co, align 4, !dbg !5852       ; [#uses=1 type=i32] [debug line = 175:14]
  %460 = sdiv i32 %459, 2, !dbg !5852             ; [#uses=1 type=i32] [debug line = 175:14]
  %461 = load i32* %i, align 4, !dbg !5852        ; [#uses=1 type=i32] [debug line = 175:14]
  %462 = mul nsw i32 %461, 12, !dbg !5852         ; [#uses=1 type=i32] [debug line = 175:14]
  %463 = add nsw i32 %460, %462, !dbg !5852       ; [#uses=1 type=i32] [debug line = 175:14]
  %464 = sext i32 %463 to i64, !dbg !5852         ; [#uses=1 type=i64] [debug line = 175:14]
  %465 = getelementptr inbounds [48 x [48 x [1 x [1 x float]]]]* @ShuffleConvs_1_ShuffleUnit1_2_conv3_weight, i32 0, i64 %464, !dbg !5852 ; [#uses=1 type=[48 x [1 x [1 x float]]]*] [debug line = 175:14]
  %466 = getelementptr inbounds [48 x [1 x [1 x float]]]* %465, i32 0, i64 %458, !dbg !5852 ; [#uses=1 type=[1 x [1 x float]]*] [debug line = 175:14]
  %467 = getelementptr inbounds [1 x [1 x float]]* %466, i32 0, i64 0, !dbg !5852 ; [#uses=1 type=[1 x float]*] [debug line = 175:14]
  %468 = getelementptr inbounds [1 x float]* %467, i32 0, i64 0, !dbg !5852 ; [#uses=1 type=float*] [debug line = 175:14]
  store float %452, float* %468, align 4, !dbg !5852 ; [debug line = 175:14]
  %469 = load i32* %ci, align 4, !dbg !5853       ; [#uses=1 type=i32] [debug line = 176:14]
  %470 = sext i32 %469 to i64, !dbg !5853         ; [#uses=1 type=i64] [debug line = 176:14]
  %471 = load i32* %co, align 4, !dbg !5853       ; [#uses=1 type=i32] [debug line = 176:14]
  %472 = add nsw i32 %471, 1080, !dbg !5853       ; [#uses=1 type=i32] [debug line = 176:14]
  %473 = load i32* %i, align 4, !dbg !5853        ; [#uses=1 type=i32] [debug line = 176:14]
  %474 = mul nsw i32 24, %473, !dbg !5853         ; [#uses=1 type=i32] [debug line = 176:14]
  %475 = add nsw i32 %472, %474, !dbg !5853       ; [#uses=1 type=i32] [debug line = 176:14]
  %476 = sext i32 %475 to i64, !dbg !5853         ; [#uses=1 type=i64] [debug line = 176:14]
  %477 = load [24 x [1 x [1 x float]]]** %4, align 8, !dbg !5853 ; [#uses=1 type=[24 x [1 x [1 x float]]]*] [debug line = 176:14]
  %478 = getelementptr inbounds [24 x [1 x [1 x float]]]* %477, i64 %476, !dbg !5853 ; [#uses=1 type=[24 x [1 x [1 x float]]]*] [debug line = 176:14]
  %479 = getelementptr inbounds [24 x [1 x [1 x float]]]* %478, i32 0, i64 %470, !dbg !5853 ; [#uses=1 type=[1 x [1 x float]]*] [debug line = 176:14]
  %480 = getelementptr inbounds [1 x [1 x float]]* %479, i32 0, i64 0, !dbg !5853 ; [#uses=1 type=[1 x float]*] [debug line = 176:14]
  %481 = getelementptr inbounds [1 x float]* %480, i32 0, i64 0, !dbg !5853 ; [#uses=1 type=float*] [debug line = 176:14]
  %482 = load float* %481, align 4, !dbg !5853    ; [#uses=1 type=float] [debug line = 176:14]
  %483 = load i32* %ci, align 4, !dbg !5853       ; [#uses=1 type=i32] [debug line = 176:14]
  %484 = load i32* %co, align 4, !dbg !5853       ; [#uses=1 type=i32] [debug line = 176:14]
  %485 = srem i32 %484, 2, !dbg !5853             ; [#uses=1 type=i32] [debug line = 176:14]
  %486 = mul nsw i32 24, %485, !dbg !5853         ; [#uses=1 type=i32] [debug line = 176:14]
  %487 = add nsw i32 %483, %486, !dbg !5853       ; [#uses=1 type=i32] [debug line = 176:14]
  %488 = sext i32 %487 to i64, !dbg !5853         ; [#uses=1 type=i64] [debug line = 176:14]
  %489 = load i32* %co, align 4, !dbg !5853       ; [#uses=1 type=i32] [debug line = 176:14]
  %490 = sdiv i32 %489, 2, !dbg !5853             ; [#uses=1 type=i32] [debug line = 176:14]
  %491 = load i32* %i, align 4, !dbg !5853        ; [#uses=1 type=i32] [debug line = 176:14]
  %492 = mul nsw i32 %491, 12, !dbg !5853         ; [#uses=1 type=i32] [debug line = 176:14]
  %493 = add nsw i32 %490, %492, !dbg !5853       ; [#uses=1 type=i32] [debug line = 176:14]
  %494 = sext i32 %493 to i64, !dbg !5853         ; [#uses=1 type=i64] [debug line = 176:14]
  %495 = getelementptr inbounds [48 x [48 x [1 x [1 x float]]]]* @ShuffleConvs_1_ShuffleUnit1_3_conv1_weight, i32 0, i64 %494, !dbg !5853 ; [#uses=1 type=[48 x [1 x [1 x float]]]*] [debug line = 176:14]
  %496 = getelementptr inbounds [48 x [1 x [1 x float]]]* %495, i32 0, i64 %488, !dbg !5853 ; [#uses=1 type=[1 x [1 x float]]*] [debug line = 176:14]
  %497 = getelementptr inbounds [1 x [1 x float]]* %496, i32 0, i64 0, !dbg !5853 ; [#uses=1 type=[1 x float]*] [debug line = 176:14]
  %498 = getelementptr inbounds [1 x float]* %497, i32 0, i64 0, !dbg !5853 ; [#uses=1 type=float*] [debug line = 176:14]
  store float %482, float* %498, align 4, !dbg !5853 ; [debug line = 176:14]
  %499 = load i32* %ci, align 4, !dbg !5854       ; [#uses=1 type=i32] [debug line = 177:14]
  %500 = sext i32 %499 to i64, !dbg !5854         ; [#uses=1 type=i64] [debug line = 177:14]
  %501 = load i32* %co, align 4, !dbg !5854       ; [#uses=1 type=i32] [debug line = 177:14]
  %502 = add nsw i32 %501, 1176, !dbg !5854       ; [#uses=1 type=i32] [debug line = 177:14]
  %503 = load i32* %i, align 4, !dbg !5854        ; [#uses=1 type=i32] [debug line = 177:14]
  %504 = mul nsw i32 24, %503, !dbg !5854         ; [#uses=1 type=i32] [debug line = 177:14]
  %505 = add nsw i32 %502, %504, !dbg !5854       ; [#uses=1 type=i32] [debug line = 177:14]
  %506 = sext i32 %505 to i64, !dbg !5854         ; [#uses=1 type=i64] [debug line = 177:14]
  %507 = load [24 x [1 x [1 x float]]]** %4, align 8, !dbg !5854 ; [#uses=1 type=[24 x [1 x [1 x float]]]*] [debug line = 177:14]
  %508 = getelementptr inbounds [24 x [1 x [1 x float]]]* %507, i64 %506, !dbg !5854 ; [#uses=1 type=[24 x [1 x [1 x float]]]*] [debug line = 177:14]
  %509 = getelementptr inbounds [24 x [1 x [1 x float]]]* %508, i32 0, i64 %500, !dbg !5854 ; [#uses=1 type=[1 x [1 x float]]*] [debug line = 177:14]
  %510 = getelementptr inbounds [1 x [1 x float]]* %509, i32 0, i64 0, !dbg !5854 ; [#uses=1 type=[1 x float]*] [debug line = 177:14]
  %511 = getelementptr inbounds [1 x float]* %510, i32 0, i64 0, !dbg !5854 ; [#uses=1 type=float*] [debug line = 177:14]
  %512 = load float* %511, align 4, !dbg !5854    ; [#uses=1 type=float] [debug line = 177:14]
  %513 = load i32* %ci, align 4, !dbg !5854       ; [#uses=1 type=i32] [debug line = 177:14]
  %514 = load i32* %co, align 4, !dbg !5854       ; [#uses=1 type=i32] [debug line = 177:14]
  %515 = srem i32 %514, 2, !dbg !5854             ; [#uses=1 type=i32] [debug line = 177:14]
  %516 = mul nsw i32 24, %515, !dbg !5854         ; [#uses=1 type=i32] [debug line = 177:14]
  %517 = add nsw i32 %513, %516, !dbg !5854       ; [#uses=1 type=i32] [debug line = 177:14]
  %518 = sext i32 %517 to i64, !dbg !5854         ; [#uses=1 type=i64] [debug line = 177:14]
  %519 = load i32* %co, align 4, !dbg !5854       ; [#uses=1 type=i32] [debug line = 177:14]
  %520 = sdiv i32 %519, 2, !dbg !5854             ; [#uses=1 type=i32] [debug line = 177:14]
  %521 = load i32* %i, align 4, !dbg !5854        ; [#uses=1 type=i32] [debug line = 177:14]
  %522 = mul nsw i32 %521, 12, !dbg !5854         ; [#uses=1 type=i32] [debug line = 177:14]
  %523 = add nsw i32 %520, %522, !dbg !5854       ; [#uses=1 type=i32] [debug line = 177:14]
  %524 = sext i32 %523 to i64, !dbg !5854         ; [#uses=1 type=i64] [debug line = 177:14]
  %525 = getelementptr inbounds [48 x [48 x [1 x [1 x float]]]]* @ShuffleConvs_1_ShuffleUnit1_3_conv3_weight, i32 0, i64 %524, !dbg !5854 ; [#uses=1 type=[48 x [1 x [1 x float]]]*] [debug line = 177:14]
  %526 = getelementptr inbounds [48 x [1 x [1 x float]]]* %525, i32 0, i64 %518, !dbg !5854 ; [#uses=1 type=[1 x [1 x float]]*] [debug line = 177:14]
  %527 = getelementptr inbounds [1 x [1 x float]]* %526, i32 0, i64 0, !dbg !5854 ; [#uses=1 type=[1 x float]*] [debug line = 177:14]
  %528 = getelementptr inbounds [1 x float]* %527, i32 0, i64 0, !dbg !5854 ; [#uses=1 type=float*] [debug line = 177:14]
  store float %512, float* %528, align 4, !dbg !5854 ; [debug line = 177:14]
  %529 = load i32* %ci, align 4, !dbg !5855       ; [#uses=1 type=i32] [debug line = 178:14]
  %530 = sext i32 %529 to i64, !dbg !5855         ; [#uses=1 type=i64] [debug line = 178:14]
  %531 = load i32* %co, align 4, !dbg !5855       ; [#uses=1 type=i32] [debug line = 178:14]
  %532 = add nsw i32 %531, 1272, !dbg !5855       ; [#uses=1 type=i32] [debug line = 178:14]
  %533 = load i32* %i, align 4, !dbg !5855        ; [#uses=1 type=i32] [debug line = 178:14]
  %534 = mul nsw i32 24, %533, !dbg !5855         ; [#uses=1 type=i32] [debug line = 178:14]
  %535 = add nsw i32 %532, %534, !dbg !5855       ; [#uses=1 type=i32] [debug line = 178:14]
  %536 = sext i32 %535 to i64, !dbg !5855         ; [#uses=1 type=i64] [debug line = 178:14]
  %537 = load [24 x [1 x [1 x float]]]** %4, align 8, !dbg !5855 ; [#uses=1 type=[24 x [1 x [1 x float]]]*] [debug line = 178:14]
  %538 = getelementptr inbounds [24 x [1 x [1 x float]]]* %537, i64 %536, !dbg !5855 ; [#uses=1 type=[24 x [1 x [1 x float]]]*] [debug line = 178:14]
  %539 = getelementptr inbounds [24 x [1 x [1 x float]]]* %538, i32 0, i64 %530, !dbg !5855 ; [#uses=1 type=[1 x [1 x float]]*] [debug line = 178:14]
  %540 = getelementptr inbounds [1 x [1 x float]]* %539, i32 0, i64 0, !dbg !5855 ; [#uses=1 type=[1 x float]*] [debug line = 178:14]
  %541 = getelementptr inbounds [1 x float]* %540, i32 0, i64 0, !dbg !5855 ; [#uses=1 type=float*] [debug line = 178:14]
  %542 = load float* %541, align 4, !dbg !5855    ; [#uses=1 type=float] [debug line = 178:14]
  %543 = load i32* %ci, align 4, !dbg !5855       ; [#uses=1 type=i32] [debug line = 178:14]
  %544 = load i32* %co, align 4, !dbg !5855       ; [#uses=1 type=i32] [debug line = 178:14]
  %545 = srem i32 %544, 2, !dbg !5855             ; [#uses=1 type=i32] [debug line = 178:14]
  %546 = mul nsw i32 24, %545, !dbg !5855         ; [#uses=1 type=i32] [debug line = 178:14]
  %547 = add nsw i32 %543, %546, !dbg !5855       ; [#uses=1 type=i32] [debug line = 178:14]
  %548 = sext i32 %547 to i64, !dbg !5855         ; [#uses=1 type=i64] [debug line = 178:14]
  %549 = load i32* %co, align 4, !dbg !5855       ; [#uses=1 type=i32] [debug line = 178:14]
  %550 = sdiv i32 %549, 2, !dbg !5855             ; [#uses=1 type=i32] [debug line = 178:14]
  %551 = load i32* %i, align 4, !dbg !5855        ; [#uses=1 type=i32] [debug line = 178:14]
  %552 = mul nsw i32 %551, 12, !dbg !5855         ; [#uses=1 type=i32] [debug line = 178:14]
  %553 = add nsw i32 %550, %552, !dbg !5855       ; [#uses=1 type=i32] [debug line = 178:14]
  %554 = sext i32 %553 to i64, !dbg !5855         ; [#uses=1 type=i64] [debug line = 178:14]
  %555 = getelementptr inbounds [48 x [48 x [1 x [1 x float]]]]* @ShuffleConvs_1_ShuffleUnit1_4_conv1_weight, i32 0, i64 %554, !dbg !5855 ; [#uses=1 type=[48 x [1 x [1 x float]]]*] [debug line = 178:14]
  %556 = getelementptr inbounds [48 x [1 x [1 x float]]]* %555, i32 0, i64 %548, !dbg !5855 ; [#uses=1 type=[1 x [1 x float]]*] [debug line = 178:14]
  %557 = getelementptr inbounds [1 x [1 x float]]* %556, i32 0, i64 0, !dbg !5855 ; [#uses=1 type=[1 x float]*] [debug line = 178:14]
  %558 = getelementptr inbounds [1 x float]* %557, i32 0, i64 0, !dbg !5855 ; [#uses=1 type=float*] [debug line = 178:14]
  store float %542, float* %558, align 4, !dbg !5855 ; [debug line = 178:14]
  %559 = load i32* %ci, align 4, !dbg !5856       ; [#uses=1 type=i32] [debug line = 179:14]
  %560 = sext i32 %559 to i64, !dbg !5856         ; [#uses=1 type=i64] [debug line = 179:14]
  %561 = load i32* %co, align 4, !dbg !5856       ; [#uses=1 type=i32] [debug line = 179:14]
  %562 = add nsw i32 %561, 1368, !dbg !5856       ; [#uses=1 type=i32] [debug line = 179:14]
  %563 = load i32* %i, align 4, !dbg !5856        ; [#uses=1 type=i32] [debug line = 179:14]
  %564 = mul nsw i32 24, %563, !dbg !5856         ; [#uses=1 type=i32] [debug line = 179:14]
  %565 = add nsw i32 %562, %564, !dbg !5856       ; [#uses=1 type=i32] [debug line = 179:14]
  %566 = sext i32 %565 to i64, !dbg !5856         ; [#uses=1 type=i64] [debug line = 179:14]
  %567 = load [24 x [1 x [1 x float]]]** %4, align 8, !dbg !5856 ; [#uses=1 type=[24 x [1 x [1 x float]]]*] [debug line = 179:14]
  %568 = getelementptr inbounds [24 x [1 x [1 x float]]]* %567, i64 %566, !dbg !5856 ; [#uses=1 type=[24 x [1 x [1 x float]]]*] [debug line = 179:14]
  %569 = getelementptr inbounds [24 x [1 x [1 x float]]]* %568, i32 0, i64 %560, !dbg !5856 ; [#uses=1 type=[1 x [1 x float]]*] [debug line = 179:14]
  %570 = getelementptr inbounds [1 x [1 x float]]* %569, i32 0, i64 0, !dbg !5856 ; [#uses=1 type=[1 x float]*] [debug line = 179:14]
  %571 = getelementptr inbounds [1 x float]* %570, i32 0, i64 0, !dbg !5856 ; [#uses=1 type=float*] [debug line = 179:14]
  %572 = load float* %571, align 4, !dbg !5856    ; [#uses=1 type=float] [debug line = 179:14]
  %573 = load i32* %ci, align 4, !dbg !5856       ; [#uses=1 type=i32] [debug line = 179:14]
  %574 = load i32* %co, align 4, !dbg !5856       ; [#uses=1 type=i32] [debug line = 179:14]
  %575 = srem i32 %574, 2, !dbg !5856             ; [#uses=1 type=i32] [debug line = 179:14]
  %576 = mul nsw i32 24, %575, !dbg !5856         ; [#uses=1 type=i32] [debug line = 179:14]
  %577 = add nsw i32 %573, %576, !dbg !5856       ; [#uses=1 type=i32] [debug line = 179:14]
  %578 = sext i32 %577 to i64, !dbg !5856         ; [#uses=1 type=i64] [debug line = 179:14]
  %579 = load i32* %co, align 4, !dbg !5856       ; [#uses=1 type=i32] [debug line = 179:14]
  %580 = sdiv i32 %579, 2, !dbg !5856             ; [#uses=1 type=i32] [debug line = 179:14]
  %581 = load i32* %i, align 4, !dbg !5856        ; [#uses=1 type=i32] [debug line = 179:14]
  %582 = mul nsw i32 %581, 12, !dbg !5856         ; [#uses=1 type=i32] [debug line = 179:14]
  %583 = add nsw i32 %580, %582, !dbg !5856       ; [#uses=1 type=i32] [debug line = 179:14]
  %584 = sext i32 %583 to i64, !dbg !5856         ; [#uses=1 type=i64] [debug line = 179:14]
  %585 = getelementptr inbounds [48 x [48 x [1 x [1 x float]]]]* @ShuffleConvs_1_ShuffleUnit1_4_conv3_weight, i32 0, i64 %584, !dbg !5856 ; [#uses=1 type=[48 x [1 x [1 x float]]]*] [debug line = 179:14]
  %586 = getelementptr inbounds [48 x [1 x [1 x float]]]* %585, i32 0, i64 %578, !dbg !5856 ; [#uses=1 type=[1 x [1 x float]]*] [debug line = 179:14]
  %587 = getelementptr inbounds [1 x [1 x float]]* %586, i32 0, i64 0, !dbg !5856 ; [#uses=1 type=[1 x float]*] [debug line = 179:14]
  %588 = getelementptr inbounds [1 x float]* %587, i32 0, i64 0, !dbg !5856 ; [#uses=1 type=float*] [debug line = 179:14]
  store float %572, float* %588, align 4, !dbg !5856 ; [debug line = 179:14]
  %589 = load i32* %ci, align 4, !dbg !5857       ; [#uses=1 type=i32] [debug line = 180:14]
  %590 = sext i32 %589 to i64, !dbg !5857         ; [#uses=1 type=i64] [debug line = 180:14]
  %591 = load i32* %co, align 4, !dbg !5857       ; [#uses=1 type=i32] [debug line = 180:14]
  %592 = add nsw i32 %591, 1464, !dbg !5857       ; [#uses=1 type=i32] [debug line = 180:14]
  %593 = load i32* %i, align 4, !dbg !5857        ; [#uses=1 type=i32] [debug line = 180:14]
  %594 = mul nsw i32 24, %593, !dbg !5857         ; [#uses=1 type=i32] [debug line = 180:14]
  %595 = add nsw i32 %592, %594, !dbg !5857       ; [#uses=1 type=i32] [debug line = 180:14]
  %596 = sext i32 %595 to i64, !dbg !5857         ; [#uses=1 type=i64] [debug line = 180:14]
  %597 = load [24 x [1 x [1 x float]]]** %4, align 8, !dbg !5857 ; [#uses=1 type=[24 x [1 x [1 x float]]]*] [debug line = 180:14]
  %598 = getelementptr inbounds [24 x [1 x [1 x float]]]* %597, i64 %596, !dbg !5857 ; [#uses=1 type=[24 x [1 x [1 x float]]]*] [debug line = 180:14]
  %599 = getelementptr inbounds [24 x [1 x [1 x float]]]* %598, i32 0, i64 %590, !dbg !5857 ; [#uses=1 type=[1 x [1 x float]]*] [debug line = 180:14]
  %600 = getelementptr inbounds [1 x [1 x float]]* %599, i32 0, i64 0, !dbg !5857 ; [#uses=1 type=[1 x float]*] [debug line = 180:14]
  %601 = getelementptr inbounds [1 x float]* %600, i32 0, i64 0, !dbg !5857 ; [#uses=1 type=float*] [debug line = 180:14]
  %602 = load float* %601, align 4, !dbg !5857    ; [#uses=1 type=float] [debug line = 180:14]
  %603 = load i32* %ci, align 4, !dbg !5857       ; [#uses=1 type=i32] [debug line = 180:14]
  %604 = load i32* %co, align 4, !dbg !5857       ; [#uses=1 type=i32] [debug line = 180:14]
  %605 = srem i32 %604, 2, !dbg !5857             ; [#uses=1 type=i32] [debug line = 180:14]
  %606 = mul nsw i32 24, %605, !dbg !5857         ; [#uses=1 type=i32] [debug line = 180:14]
  %607 = add nsw i32 %603, %606, !dbg !5857       ; [#uses=1 type=i32] [debug line = 180:14]
  %608 = sext i32 %607 to i64, !dbg !5857         ; [#uses=1 type=i64] [debug line = 180:14]
  %609 = load i32* %co, align 4, !dbg !5857       ; [#uses=1 type=i32] [debug line = 180:14]
  %610 = sdiv i32 %609, 2, !dbg !5857             ; [#uses=1 type=i32] [debug line = 180:14]
  %611 = load i32* %i, align 4, !dbg !5857        ; [#uses=1 type=i32] [debug line = 180:14]
  %612 = mul nsw i32 %611, 12, !dbg !5857         ; [#uses=1 type=i32] [debug line = 180:14]
  %613 = add nsw i32 %610, %612, !dbg !5857       ; [#uses=1 type=i32] [debug line = 180:14]
  %614 = sext i32 %613 to i64, !dbg !5857         ; [#uses=1 type=i64] [debug line = 180:14]
  %615 = getelementptr inbounds [48 x [48 x [1 x [1 x float]]]]* @ShuffleConvs_1_ShuffleUnit1_5_conv1_weight, i32 0, i64 %614, !dbg !5857 ; [#uses=1 type=[48 x [1 x [1 x float]]]*] [debug line = 180:14]
  %616 = getelementptr inbounds [48 x [1 x [1 x float]]]* %615, i32 0, i64 %608, !dbg !5857 ; [#uses=1 type=[1 x [1 x float]]*] [debug line = 180:14]
  %617 = getelementptr inbounds [1 x [1 x float]]* %616, i32 0, i64 0, !dbg !5857 ; [#uses=1 type=[1 x float]*] [debug line = 180:14]
  %618 = getelementptr inbounds [1 x float]* %617, i32 0, i64 0, !dbg !5857 ; [#uses=1 type=float*] [debug line = 180:14]
  store float %602, float* %618, align 4, !dbg !5857 ; [debug line = 180:14]
  %619 = load i32* %ci, align 4, !dbg !5858       ; [#uses=1 type=i32] [debug line = 181:14]
  %620 = sext i32 %619 to i64, !dbg !5858         ; [#uses=1 type=i64] [debug line = 181:14]
  %621 = load i32* %co, align 4, !dbg !5858       ; [#uses=1 type=i32] [debug line = 181:14]
  %622 = add nsw i32 %621, 1560, !dbg !5858       ; [#uses=1 type=i32] [debug line = 181:14]
  %623 = load i32* %i, align 4, !dbg !5858        ; [#uses=1 type=i32] [debug line = 181:14]
  %624 = mul nsw i32 24, %623, !dbg !5858         ; [#uses=1 type=i32] [debug line = 181:14]
  %625 = add nsw i32 %622, %624, !dbg !5858       ; [#uses=1 type=i32] [debug line = 181:14]
  %626 = sext i32 %625 to i64, !dbg !5858         ; [#uses=1 type=i64] [debug line = 181:14]
  %627 = load [24 x [1 x [1 x float]]]** %4, align 8, !dbg !5858 ; [#uses=1 type=[24 x [1 x [1 x float]]]*] [debug line = 181:14]
  %628 = getelementptr inbounds [24 x [1 x [1 x float]]]* %627, i64 %626, !dbg !5858 ; [#uses=1 type=[24 x [1 x [1 x float]]]*] [debug line = 181:14]
  %629 = getelementptr inbounds [24 x [1 x [1 x float]]]* %628, i32 0, i64 %620, !dbg !5858 ; [#uses=1 type=[1 x [1 x float]]*] [debug line = 181:14]
  %630 = getelementptr inbounds [1 x [1 x float]]* %629, i32 0, i64 0, !dbg !5858 ; [#uses=1 type=[1 x float]*] [debug line = 181:14]
  %631 = getelementptr inbounds [1 x float]* %630, i32 0, i64 0, !dbg !5858 ; [#uses=1 type=float*] [debug line = 181:14]
  %632 = load float* %631, align 4, !dbg !5858    ; [#uses=1 type=float] [debug line = 181:14]
  %633 = load i32* %ci, align 4, !dbg !5858       ; [#uses=1 type=i32] [debug line = 181:14]
  %634 = load i32* %co, align 4, !dbg !5858       ; [#uses=1 type=i32] [debug line = 181:14]
  %635 = srem i32 %634, 2, !dbg !5858             ; [#uses=1 type=i32] [debug line = 181:14]
  %636 = mul nsw i32 24, %635, !dbg !5858         ; [#uses=1 type=i32] [debug line = 181:14]
  %637 = add nsw i32 %633, %636, !dbg !5858       ; [#uses=1 type=i32] [debug line = 181:14]
  %638 = sext i32 %637 to i64, !dbg !5858         ; [#uses=1 type=i64] [debug line = 181:14]
  %639 = load i32* %co, align 4, !dbg !5858       ; [#uses=1 type=i32] [debug line = 181:14]
  %640 = sdiv i32 %639, 2, !dbg !5858             ; [#uses=1 type=i32] [debug line = 181:14]
  %641 = load i32* %i, align 4, !dbg !5858        ; [#uses=1 type=i32] [debug line = 181:14]
  %642 = mul nsw i32 %641, 12, !dbg !5858         ; [#uses=1 type=i32] [debug line = 181:14]
  %643 = add nsw i32 %640, %642, !dbg !5858       ; [#uses=1 type=i32] [debug line = 181:14]
  %644 = sext i32 %643 to i64, !dbg !5858         ; [#uses=1 type=i64] [debug line = 181:14]
  %645 = getelementptr inbounds [48 x [48 x [1 x [1 x float]]]]* @ShuffleConvs_1_ShuffleUnit1_5_conv3_weight, i32 0, i64 %644, !dbg !5858 ; [#uses=1 type=[48 x [1 x [1 x float]]]*] [debug line = 181:14]
  %646 = getelementptr inbounds [48 x [1 x [1 x float]]]* %645, i32 0, i64 %638, !dbg !5858 ; [#uses=1 type=[1 x [1 x float]]*] [debug line = 181:14]
  %647 = getelementptr inbounds [1 x [1 x float]]* %646, i32 0, i64 0, !dbg !5858 ; [#uses=1 type=[1 x float]*] [debug line = 181:14]
  %648 = getelementptr inbounds [1 x float]* %647, i32 0, i64 0, !dbg !5858 ; [#uses=1 type=float*] [debug line = 181:14]
  store float %632, float* %648, align 4, !dbg !5858 ; [debug line = 181:14]
  %649 = load i32* %ci, align 4, !dbg !5859       ; [#uses=1 type=i32] [debug line = 182:14]
  %650 = sext i32 %649 to i64, !dbg !5859         ; [#uses=1 type=i64] [debug line = 182:14]
  %651 = load i32* %co, align 4, !dbg !5859       ; [#uses=1 type=i32] [debug line = 182:14]
  %652 = add nsw i32 %651, 1656, !dbg !5859       ; [#uses=1 type=i32] [debug line = 182:14]
  %653 = load i32* %i, align 4, !dbg !5859        ; [#uses=1 type=i32] [debug line = 182:14]
  %654 = mul nsw i32 24, %653, !dbg !5859         ; [#uses=1 type=i32] [debug line = 182:14]
  %655 = add nsw i32 %652, %654, !dbg !5859       ; [#uses=1 type=i32] [debug line = 182:14]
  %656 = sext i32 %655 to i64, !dbg !5859         ; [#uses=1 type=i64] [debug line = 182:14]
  %657 = load [24 x [1 x [1 x float]]]** %4, align 8, !dbg !5859 ; [#uses=1 type=[24 x [1 x [1 x float]]]*] [debug line = 182:14]
  %658 = getelementptr inbounds [24 x [1 x [1 x float]]]* %657, i64 %656, !dbg !5859 ; [#uses=1 type=[24 x [1 x [1 x float]]]*] [debug line = 182:14]
  %659 = getelementptr inbounds [24 x [1 x [1 x float]]]* %658, i32 0, i64 %650, !dbg !5859 ; [#uses=1 type=[1 x [1 x float]]*] [debug line = 182:14]
  %660 = getelementptr inbounds [1 x [1 x float]]* %659, i32 0, i64 0, !dbg !5859 ; [#uses=1 type=[1 x float]*] [debug line = 182:14]
  %661 = getelementptr inbounds [1 x float]* %660, i32 0, i64 0, !dbg !5859 ; [#uses=1 type=float*] [debug line = 182:14]
  %662 = load float* %661, align 4, !dbg !5859    ; [#uses=1 type=float] [debug line = 182:14]
  %663 = load i32* %ci, align 4, !dbg !5859       ; [#uses=1 type=i32] [debug line = 182:14]
  %664 = load i32* %co, align 4, !dbg !5859       ; [#uses=1 type=i32] [debug line = 182:14]
  %665 = srem i32 %664, 2, !dbg !5859             ; [#uses=1 type=i32] [debug line = 182:14]
  %666 = mul nsw i32 24, %665, !dbg !5859         ; [#uses=1 type=i32] [debug line = 182:14]
  %667 = add nsw i32 %663, %666, !dbg !5859       ; [#uses=1 type=i32] [debug line = 182:14]
  %668 = sext i32 %667 to i64, !dbg !5859         ; [#uses=1 type=i64] [debug line = 182:14]
  %669 = load i32* %co, align 4, !dbg !5859       ; [#uses=1 type=i32] [debug line = 182:14]
  %670 = sdiv i32 %669, 2, !dbg !5859             ; [#uses=1 type=i32] [debug line = 182:14]
  %671 = load i32* %i, align 4, !dbg !5859        ; [#uses=1 type=i32] [debug line = 182:14]
  %672 = mul nsw i32 %671, 12, !dbg !5859         ; [#uses=1 type=i32] [debug line = 182:14]
  %673 = add nsw i32 %670, %672, !dbg !5859       ; [#uses=1 type=i32] [debug line = 182:14]
  %674 = sext i32 %673 to i64, !dbg !5859         ; [#uses=1 type=i64] [debug line = 182:14]
  %675 = getelementptr inbounds [48 x [48 x [1 x [1 x float]]]]* @ShuffleConvs_1_ShuffleUnit1_6_conv1_weight, i32 0, i64 %674, !dbg !5859 ; [#uses=1 type=[48 x [1 x [1 x float]]]*] [debug line = 182:14]
  %676 = getelementptr inbounds [48 x [1 x [1 x float]]]* %675, i32 0, i64 %668, !dbg !5859 ; [#uses=1 type=[1 x [1 x float]]*] [debug line = 182:14]
  %677 = getelementptr inbounds [1 x [1 x float]]* %676, i32 0, i64 0, !dbg !5859 ; [#uses=1 type=[1 x float]*] [debug line = 182:14]
  %678 = getelementptr inbounds [1 x float]* %677, i32 0, i64 0, !dbg !5859 ; [#uses=1 type=float*] [debug line = 182:14]
  store float %662, float* %678, align 4, !dbg !5859 ; [debug line = 182:14]
  %679 = load i32* %ci, align 4, !dbg !5860       ; [#uses=1 type=i32] [debug line = 183:14]
  %680 = sext i32 %679 to i64, !dbg !5860         ; [#uses=1 type=i64] [debug line = 183:14]
  %681 = load i32* %co, align 4, !dbg !5860       ; [#uses=1 type=i32] [debug line = 183:14]
  %682 = add nsw i32 %681, 1752, !dbg !5860       ; [#uses=1 type=i32] [debug line = 183:14]
  %683 = load i32* %i, align 4, !dbg !5860        ; [#uses=1 type=i32] [debug line = 183:14]
  %684 = mul nsw i32 24, %683, !dbg !5860         ; [#uses=1 type=i32] [debug line = 183:14]
  %685 = add nsw i32 %682, %684, !dbg !5860       ; [#uses=1 type=i32] [debug line = 183:14]
  %686 = sext i32 %685 to i64, !dbg !5860         ; [#uses=1 type=i64] [debug line = 183:14]
  %687 = load [24 x [1 x [1 x float]]]** %4, align 8, !dbg !5860 ; [#uses=1 type=[24 x [1 x [1 x float]]]*] [debug line = 183:14]
  %688 = getelementptr inbounds [24 x [1 x [1 x float]]]* %687, i64 %686, !dbg !5860 ; [#uses=1 type=[24 x [1 x [1 x float]]]*] [debug line = 183:14]
  %689 = getelementptr inbounds [24 x [1 x [1 x float]]]* %688, i32 0, i64 %680, !dbg !5860 ; [#uses=1 type=[1 x [1 x float]]*] [debug line = 183:14]
  %690 = getelementptr inbounds [1 x [1 x float]]* %689, i32 0, i64 0, !dbg !5860 ; [#uses=1 type=[1 x float]*] [debug line = 183:14]
  %691 = getelementptr inbounds [1 x float]* %690, i32 0, i64 0, !dbg !5860 ; [#uses=1 type=float*] [debug line = 183:14]
  %692 = load float* %691, align 4, !dbg !5860    ; [#uses=1 type=float] [debug line = 183:14]
  %693 = load i32* %ci, align 4, !dbg !5860       ; [#uses=1 type=i32] [debug line = 183:14]
  %694 = load i32* %co, align 4, !dbg !5860       ; [#uses=1 type=i32] [debug line = 183:14]
  %695 = srem i32 %694, 2, !dbg !5860             ; [#uses=1 type=i32] [debug line = 183:14]
  %696 = mul nsw i32 24, %695, !dbg !5860         ; [#uses=1 type=i32] [debug line = 183:14]
  %697 = add nsw i32 %693, %696, !dbg !5860       ; [#uses=1 type=i32] [debug line = 183:14]
  %698 = sext i32 %697 to i64, !dbg !5860         ; [#uses=1 type=i64] [debug line = 183:14]
  %699 = load i32* %co, align 4, !dbg !5860       ; [#uses=1 type=i32] [debug line = 183:14]
  %700 = sdiv i32 %699, 2, !dbg !5860             ; [#uses=1 type=i32] [debug line = 183:14]
  %701 = load i32* %i, align 4, !dbg !5860        ; [#uses=1 type=i32] [debug line = 183:14]
  %702 = mul nsw i32 %701, 12, !dbg !5860         ; [#uses=1 type=i32] [debug line = 183:14]
  %703 = add nsw i32 %700, %702, !dbg !5860       ; [#uses=1 type=i32] [debug line = 183:14]
  %704 = sext i32 %703 to i64, !dbg !5860         ; [#uses=1 type=i64] [debug line = 183:14]
  %705 = getelementptr inbounds [48 x [48 x [1 x [1 x float]]]]* @ShuffleConvs_1_ShuffleUnit1_6_conv3_weight, i32 0, i64 %704, !dbg !5860 ; [#uses=1 type=[48 x [1 x [1 x float]]]*] [debug line = 183:14]
  %706 = getelementptr inbounds [48 x [1 x [1 x float]]]* %705, i32 0, i64 %698, !dbg !5860 ; [#uses=1 type=[1 x [1 x float]]*] [debug line = 183:14]
  %707 = getelementptr inbounds [1 x [1 x float]]* %706, i32 0, i64 0, !dbg !5860 ; [#uses=1 type=[1 x float]*] [debug line = 183:14]
  %708 = getelementptr inbounds [1 x float]* %707, i32 0, i64 0, !dbg !5860 ; [#uses=1 type=float*] [debug line = 183:14]
  store float %692, float* %708, align 4, !dbg !5860 ; [debug line = 183:14]
  %709 = load i32* %ci, align 4, !dbg !5861       ; [#uses=1 type=i32] [debug line = 184:14]
  %710 = sext i32 %709 to i64, !dbg !5861         ; [#uses=1 type=i64] [debug line = 184:14]
  %711 = load i32* %co, align 4, !dbg !5861       ; [#uses=1 type=i32] [debug line = 184:14]
  %712 = add nsw i32 %711, 1848, !dbg !5861       ; [#uses=1 type=i32] [debug line = 184:14]
  %713 = load i32* %i, align 4, !dbg !5861        ; [#uses=1 type=i32] [debug line = 184:14]
  %714 = mul nsw i32 24, %713, !dbg !5861         ; [#uses=1 type=i32] [debug line = 184:14]
  %715 = add nsw i32 %712, %714, !dbg !5861       ; [#uses=1 type=i32] [debug line = 184:14]
  %716 = sext i32 %715 to i64, !dbg !5861         ; [#uses=1 type=i64] [debug line = 184:14]
  %717 = load [24 x [1 x [1 x float]]]** %4, align 8, !dbg !5861 ; [#uses=1 type=[24 x [1 x [1 x float]]]*] [debug line = 184:14]
  %718 = getelementptr inbounds [24 x [1 x [1 x float]]]* %717, i64 %716, !dbg !5861 ; [#uses=1 type=[24 x [1 x [1 x float]]]*] [debug line = 184:14]
  %719 = getelementptr inbounds [24 x [1 x [1 x float]]]* %718, i32 0, i64 %710, !dbg !5861 ; [#uses=1 type=[1 x [1 x float]]*] [debug line = 184:14]
  %720 = getelementptr inbounds [1 x [1 x float]]* %719, i32 0, i64 0, !dbg !5861 ; [#uses=1 type=[1 x float]*] [debug line = 184:14]
  %721 = getelementptr inbounds [1 x float]* %720, i32 0, i64 0, !dbg !5861 ; [#uses=1 type=float*] [debug line = 184:14]
  %722 = load float* %721, align 4, !dbg !5861    ; [#uses=1 type=float] [debug line = 184:14]
  %723 = load i32* %ci, align 4, !dbg !5861       ; [#uses=1 type=i32] [debug line = 184:14]
  %724 = load i32* %co, align 4, !dbg !5861       ; [#uses=1 type=i32] [debug line = 184:14]
  %725 = srem i32 %724, 2, !dbg !5861             ; [#uses=1 type=i32] [debug line = 184:14]
  %726 = mul nsw i32 24, %725, !dbg !5861         ; [#uses=1 type=i32] [debug line = 184:14]
  %727 = add nsw i32 %723, %726, !dbg !5861       ; [#uses=1 type=i32] [debug line = 184:14]
  %728 = sext i32 %727 to i64, !dbg !5861         ; [#uses=1 type=i64] [debug line = 184:14]
  %729 = load i32* %co, align 4, !dbg !5861       ; [#uses=1 type=i32] [debug line = 184:14]
  %730 = sdiv i32 %729, 2, !dbg !5861             ; [#uses=1 type=i32] [debug line = 184:14]
  %731 = load i32* %i, align 4, !dbg !5861        ; [#uses=1 type=i32] [debug line = 184:14]
  %732 = mul nsw i32 %731, 12, !dbg !5861         ; [#uses=1 type=i32] [debug line = 184:14]
  %733 = add nsw i32 %730, %732, !dbg !5861       ; [#uses=1 type=i32] [debug line = 184:14]
  %734 = sext i32 %733 to i64, !dbg !5861         ; [#uses=1 type=i64] [debug line = 184:14]
  %735 = getelementptr inbounds [48 x [48 x [1 x [1 x float]]]]* @ShuffleConvs_1_ShuffleUnit1_7_conv1_weight, i32 0, i64 %734, !dbg !5861 ; [#uses=1 type=[48 x [1 x [1 x float]]]*] [debug line = 184:14]
  %736 = getelementptr inbounds [48 x [1 x [1 x float]]]* %735, i32 0, i64 %728, !dbg !5861 ; [#uses=1 type=[1 x [1 x float]]*] [debug line = 184:14]
  %737 = getelementptr inbounds [1 x [1 x float]]* %736, i32 0, i64 0, !dbg !5861 ; [#uses=1 type=[1 x float]*] [debug line = 184:14]
  %738 = getelementptr inbounds [1 x float]* %737, i32 0, i64 0, !dbg !5861 ; [#uses=1 type=float*] [debug line = 184:14]
  store float %722, float* %738, align 4, !dbg !5861 ; [debug line = 184:14]
  %739 = load i32* %ci, align 4, !dbg !5862       ; [#uses=1 type=i32] [debug line = 185:14]
  %740 = sext i32 %739 to i64, !dbg !5862         ; [#uses=1 type=i64] [debug line = 185:14]
  %741 = load i32* %co, align 4, !dbg !5862       ; [#uses=1 type=i32] [debug line = 185:14]
  %742 = add nsw i32 %741, 1944, !dbg !5862       ; [#uses=1 type=i32] [debug line = 185:14]
  %743 = load i32* %i, align 4, !dbg !5862        ; [#uses=1 type=i32] [debug line = 185:14]
  %744 = mul nsw i32 24, %743, !dbg !5862         ; [#uses=1 type=i32] [debug line = 185:14]
  %745 = add nsw i32 %742, %744, !dbg !5862       ; [#uses=1 type=i32] [debug line = 185:14]
  %746 = sext i32 %745 to i64, !dbg !5862         ; [#uses=1 type=i64] [debug line = 185:14]
  %747 = load [24 x [1 x [1 x float]]]** %4, align 8, !dbg !5862 ; [#uses=1 type=[24 x [1 x [1 x float]]]*] [debug line = 185:14]
  %748 = getelementptr inbounds [24 x [1 x [1 x float]]]* %747, i64 %746, !dbg !5862 ; [#uses=1 type=[24 x [1 x [1 x float]]]*] [debug line = 185:14]
  %749 = getelementptr inbounds [24 x [1 x [1 x float]]]* %748, i32 0, i64 %740, !dbg !5862 ; [#uses=1 type=[1 x [1 x float]]*] [debug line = 185:14]
  %750 = getelementptr inbounds [1 x [1 x float]]* %749, i32 0, i64 0, !dbg !5862 ; [#uses=1 type=[1 x float]*] [debug line = 185:14]
  %751 = getelementptr inbounds [1 x float]* %750, i32 0, i64 0, !dbg !5862 ; [#uses=1 type=float*] [debug line = 185:14]
  %752 = load float* %751, align 4, !dbg !5862    ; [#uses=1 type=float] [debug line = 185:14]
  %753 = load i32* %ci, align 4, !dbg !5862       ; [#uses=1 type=i32] [debug line = 185:14]
  %754 = load i32* %co, align 4, !dbg !5862       ; [#uses=1 type=i32] [debug line = 185:14]
  %755 = srem i32 %754, 2, !dbg !5862             ; [#uses=1 type=i32] [debug line = 185:14]
  %756 = mul nsw i32 24, %755, !dbg !5862         ; [#uses=1 type=i32] [debug line = 185:14]
  %757 = add nsw i32 %753, %756, !dbg !5862       ; [#uses=1 type=i32] [debug line = 185:14]
  %758 = sext i32 %757 to i64, !dbg !5862         ; [#uses=1 type=i64] [debug line = 185:14]
  %759 = load i32* %co, align 4, !dbg !5862       ; [#uses=1 type=i32] [debug line = 185:14]
  %760 = sdiv i32 %759, 2, !dbg !5862             ; [#uses=1 type=i32] [debug line = 185:14]
  %761 = load i32* %i, align 4, !dbg !5862        ; [#uses=1 type=i32] [debug line = 185:14]
  %762 = mul nsw i32 %761, 12, !dbg !5862         ; [#uses=1 type=i32] [debug line = 185:14]
  %763 = add nsw i32 %760, %762, !dbg !5862       ; [#uses=1 type=i32] [debug line = 185:14]
  %764 = sext i32 %763 to i64, !dbg !5862         ; [#uses=1 type=i64] [debug line = 185:14]
  %765 = getelementptr inbounds [48 x [48 x [1 x [1 x float]]]]* @ShuffleConvs_1_ShuffleUnit1_7_conv3_weight, i32 0, i64 %764, !dbg !5862 ; [#uses=1 type=[48 x [1 x [1 x float]]]*] [debug line = 185:14]
  %766 = getelementptr inbounds [48 x [1 x [1 x float]]]* %765, i32 0, i64 %758, !dbg !5862 ; [#uses=1 type=[1 x [1 x float]]*] [debug line = 185:14]
  %767 = getelementptr inbounds [1 x [1 x float]]* %766, i32 0, i64 0, !dbg !5862 ; [#uses=1 type=[1 x float]*] [debug line = 185:14]
  %768 = getelementptr inbounds [1 x float]* %767, i32 0, i64 0, !dbg !5862 ; [#uses=1 type=float*] [debug line = 185:14]
  store float %752, float* %768, align 4, !dbg !5862 ; [debug line = 185:14]
  br label %769, !dbg !5863                       ; [debug line = 186:14]

; <label>:769                                     ; preds = %198
  %770 = load i32* %i, align 4, !dbg !5864        ; [#uses=1 type=i32] [debug line = 166:36]
  %771 = add nsw i32 %770, 1, !dbg !5864          ; [#uses=1 type=i32] [debug line = 166:36]
  store i32 %771, i32* %i, align 4, !dbg !5864    ; [debug line = 166:36]
  br label %195, !dbg !5864                       ; [debug line = 166:36]

; <label>:772                                     ; preds = %195
  call void @llvm.dbg.declare(metadata !{i32* %i1}, metadata !5865), !dbg !5867 ; [debug line = 188:22] [debug variable = i]
  store i32 0, i32* %i1, align 4, !dbg !5868      ; [debug line = 188:27]
  br label %773, !dbg !5868                       ; [debug line = 188:27]

; <label>:773                                     ; preds = %1047, %772
  %774 = load i32* %i1, align 4, !dbg !5868       ; [#uses=1 type=i32] [debug line = 188:27]
  %775 = icmp slt i32 %774, 16, !dbg !5868        ; [#uses=1 type=i1] [debug line = 188:27]
  br i1 %775, label %776, label %1050, !dbg !5868 ; [debug line = 188:27]

; <label>:776                                     ; preds = %773
  %777 = load i32* %ci, align 4, !dbg !5869       ; [#uses=1 type=i32] [debug line = 189:18]
  %778 = sext i32 %777 to i64, !dbg !5869         ; [#uses=1 type=i64] [debug line = 189:18]
  %779 = load i32* %co, align 4, !dbg !5869       ; [#uses=1 type=i32] [debug line = 189:18]
  %780 = add nsw i32 %779, 2040, !dbg !5869       ; [#uses=1 type=i32] [debug line = 189:18]
  %781 = load i32* %i1, align 4, !dbg !5869       ; [#uses=1 type=i32] [debug line = 189:18]
  %782 = mul nsw i32 24, %781, !dbg !5869         ; [#uses=1 type=i32] [debug line = 189:18]
  %783 = add nsw i32 %780, %782, !dbg !5869       ; [#uses=1 type=i32] [debug line = 189:18]
  %784 = sext i32 %783 to i64, !dbg !5869         ; [#uses=1 type=i64] [debug line = 189:18]
  %785 = load [24 x [1 x [1 x float]]]** %4, align 8, !dbg !5869 ; [#uses=1 type=[24 x [1 x [1 x float]]]*] [debug line = 189:18]
  %786 = getelementptr inbounds [24 x [1 x [1 x float]]]* %785, i64 %784, !dbg !5869 ; [#uses=1 type=[24 x [1 x [1 x float]]]*] [debug line = 189:18]
  %787 = getelementptr inbounds [24 x [1 x [1 x float]]]* %786, i32 0, i64 %778, !dbg !5869 ; [#uses=1 type=[1 x [1 x float]]*] [debug line = 189:18]
  %788 = getelementptr inbounds [1 x [1 x float]]* %787, i32 0, i64 0, !dbg !5869 ; [#uses=1 type=[1 x float]*] [debug line = 189:18]
  %789 = getelementptr inbounds [1 x float]* %788, i32 0, i64 0, !dbg !5869 ; [#uses=1 type=float*] [debug line = 189:18]
  %790 = load float* %789, align 4, !dbg !5869    ; [#uses=1 type=float] [debug line = 189:18]
  %791 = load i32* %ci, align 4, !dbg !5869       ; [#uses=1 type=i32] [debug line = 189:18]
  %792 = load i32* %co, align 4, !dbg !5869       ; [#uses=1 type=i32] [debug line = 189:18]
  %793 = srem i32 %792, 4, !dbg !5869             ; [#uses=1 type=i32] [debug line = 189:18]
  %794 = mul nsw i32 24, %793, !dbg !5869         ; [#uses=1 type=i32] [debug line = 189:18]
  %795 = add nsw i32 %791, %794, !dbg !5869       ; [#uses=1 type=i32] [debug line = 189:18]
  %796 = sext i32 %795 to i64, !dbg !5869         ; [#uses=1 type=i64] [debug line = 189:18]
  %797 = load i32* %co, align 4, !dbg !5869       ; [#uses=1 type=i32] [debug line = 189:18]
  %798 = sdiv i32 %797, 4, !dbg !5869             ; [#uses=1 type=i32] [debug line = 189:18]
  %799 = load i32* %i1, align 4, !dbg !5869       ; [#uses=1 type=i32] [debug line = 189:18]
  %800 = mul nsw i32 %799, 6, !dbg !5869          ; [#uses=1 type=i32] [debug line = 189:18]
  %801 = add nsw i32 %798, %800, !dbg !5869       ; [#uses=1 type=i32] [debug line = 189:18]
  %802 = sext i32 %801 to i64, !dbg !5869         ; [#uses=1 type=i64] [debug line = 189:18]
  %803 = getelementptr inbounds [96 x [96 x [1 x [1 x float]]]]* @ShuffleConvs_2_DownsampleUnit_conv1r_weight, i32 0, i64 %802, !dbg !5869 ; [#uses=1 type=[96 x [1 x [1 x float]]]*] [debug line = 189:18]
  %804 = getelementptr inbounds [96 x [1 x [1 x float]]]* %803, i32 0, i64 %796, !dbg !5869 ; [#uses=1 type=[1 x [1 x float]]*] [debug line = 189:18]
  %805 = getelementptr inbounds [1 x [1 x float]]* %804, i32 0, i64 0, !dbg !5869 ; [#uses=1 type=[1 x float]*] [debug line = 189:18]
  %806 = getelementptr inbounds [1 x float]* %805, i32 0, i64 0, !dbg !5869 ; [#uses=1 type=float*] [debug line = 189:18]
  store float %790, float* %806, align 4, !dbg !5869 ; [debug line = 189:18]
  %807 = load i32* %ci, align 4, !dbg !5871       ; [#uses=1 type=i32] [debug line = 190:18]
  %808 = sext i32 %807 to i64, !dbg !5871         ; [#uses=1 type=i64] [debug line = 190:18]
  %809 = load i32* %co, align 4, !dbg !5871       ; [#uses=1 type=i32] [debug line = 190:18]
  %810 = add nsw i32 %809, 2424, !dbg !5871       ; [#uses=1 type=i32] [debug line = 190:18]
  %811 = load i32* %i1, align 4, !dbg !5871       ; [#uses=1 type=i32] [debug line = 190:18]
  %812 = mul nsw i32 24, %811, !dbg !5871         ; [#uses=1 type=i32] [debug line = 190:18]
  %813 = add nsw i32 %810, %812, !dbg !5871       ; [#uses=1 type=i32] [debug line = 190:18]
  %814 = sext i32 %813 to i64, !dbg !5871         ; [#uses=1 type=i64] [debug line = 190:18]
  %815 = load [24 x [1 x [1 x float]]]** %4, align 8, !dbg !5871 ; [#uses=1 type=[24 x [1 x [1 x float]]]*] [debug line = 190:18]
  %816 = getelementptr inbounds [24 x [1 x [1 x float]]]* %815, i64 %814, !dbg !5871 ; [#uses=1 type=[24 x [1 x [1 x float]]]*] [debug line = 190:18]
  %817 = getelementptr inbounds [24 x [1 x [1 x float]]]* %816, i32 0, i64 %808, !dbg !5871 ; [#uses=1 type=[1 x [1 x float]]*] [debug line = 190:18]
  %818 = getelementptr inbounds [1 x [1 x float]]* %817, i32 0, i64 0, !dbg !5871 ; [#uses=1 type=[1 x float]*] [debug line = 190:18]
  %819 = getelementptr inbounds [1 x float]* %818, i32 0, i64 0, !dbg !5871 ; [#uses=1 type=float*] [debug line = 190:18]
  %820 = load float* %819, align 4, !dbg !5871    ; [#uses=1 type=float] [debug line = 190:18]
  %821 = load i32* %ci, align 4, !dbg !5871       ; [#uses=1 type=i32] [debug line = 190:18]
  %822 = load i32* %co, align 4, !dbg !5871       ; [#uses=1 type=i32] [debug line = 190:18]
  %823 = srem i32 %822, 4, !dbg !5871             ; [#uses=1 type=i32] [debug line = 190:18]
  %824 = mul nsw i32 24, %823, !dbg !5871         ; [#uses=1 type=i32] [debug line = 190:18]
  %825 = add nsw i32 %821, %824, !dbg !5871       ; [#uses=1 type=i32] [debug line = 190:18]
  %826 = sext i32 %825 to i64, !dbg !5871         ; [#uses=1 type=i64] [debug line = 190:18]
  %827 = load i32* %co, align 4, !dbg !5871       ; [#uses=1 type=i32] [debug line = 190:18]
  %828 = sdiv i32 %827, 4, !dbg !5871             ; [#uses=1 type=i32] [debug line = 190:18]
  %829 = load i32* %i1, align 4, !dbg !5871       ; [#uses=1 type=i32] [debug line = 190:18]
  %830 = mul nsw i32 %829, 6, !dbg !5871          ; [#uses=1 type=i32] [debug line = 190:18]
  %831 = add nsw i32 %828, %830, !dbg !5871       ; [#uses=1 type=i32] [debug line = 190:18]
  %832 = sext i32 %831 to i64, !dbg !5871         ; [#uses=1 type=i64] [debug line = 190:18]
  %833 = getelementptr inbounds [96 x [96 x [1 x [1 x float]]]]* @ShuffleConvs_2_DownsampleUnit_conv3r_weight, i32 0, i64 %832, !dbg !5871 ; [#uses=1 type=[96 x [1 x [1 x float]]]*] [debug line = 190:18]
  %834 = getelementptr inbounds [96 x [1 x [1 x float]]]* %833, i32 0, i64 %826, !dbg !5871 ; [#uses=1 type=[1 x [1 x float]]*] [debug line = 190:18]
  %835 = getelementptr inbounds [1 x [1 x float]]* %834, i32 0, i64 0, !dbg !5871 ; [#uses=1 type=[1 x float]*] [debug line = 190:18]
  %836 = getelementptr inbounds [1 x float]* %835, i32 0, i64 0, !dbg !5871 ; [#uses=1 type=float*] [debug line = 190:18]
  store float %820, float* %836, align 4, !dbg !5871 ; [debug line = 190:18]
  %837 = load i32* %ci, align 4, !dbg !5872       ; [#uses=1 type=i32] [debug line = 191:18]
  %838 = sext i32 %837 to i64, !dbg !5872         ; [#uses=1 type=i64] [debug line = 191:18]
  %839 = load i32* %co, align 4, !dbg !5872       ; [#uses=1 type=i32] [debug line = 191:18]
  %840 = add nsw i32 %839, 2808, !dbg !5872       ; [#uses=1 type=i32] [debug line = 191:18]
  %841 = load i32* %i1, align 4, !dbg !5872       ; [#uses=1 type=i32] [debug line = 191:18]
  %842 = mul nsw i32 24, %841, !dbg !5872         ; [#uses=1 type=i32] [debug line = 191:18]
  %843 = add nsw i32 %840, %842, !dbg !5872       ; [#uses=1 type=i32] [debug line = 191:18]
  %844 = sext i32 %843 to i64, !dbg !5872         ; [#uses=1 type=i64] [debug line = 191:18]
  %845 = load [24 x [1 x [1 x float]]]** %4, align 8, !dbg !5872 ; [#uses=1 type=[24 x [1 x [1 x float]]]*] [debug line = 191:18]
  %846 = getelementptr inbounds [24 x [1 x [1 x float]]]* %845, i64 %844, !dbg !5872 ; [#uses=1 type=[24 x [1 x [1 x float]]]*] [debug line = 191:18]
  %847 = getelementptr inbounds [24 x [1 x [1 x float]]]* %846, i32 0, i64 %838, !dbg !5872 ; [#uses=1 type=[1 x [1 x float]]*] [debug line = 191:18]
  %848 = getelementptr inbounds [1 x [1 x float]]* %847, i32 0, i64 0, !dbg !5872 ; [#uses=1 type=[1 x float]*] [debug line = 191:18]
  %849 = getelementptr inbounds [1 x float]* %848, i32 0, i64 0, !dbg !5872 ; [#uses=1 type=float*] [debug line = 191:18]
  %850 = load float* %849, align 4, !dbg !5872    ; [#uses=1 type=float] [debug line = 191:18]
  %851 = load i32* %ci, align 4, !dbg !5872       ; [#uses=1 type=i32] [debug line = 191:18]
  %852 = load i32* %co, align 4, !dbg !5872       ; [#uses=1 type=i32] [debug line = 191:18]
  %853 = srem i32 %852, 4, !dbg !5872             ; [#uses=1 type=i32] [debug line = 191:18]
  %854 = mul nsw i32 24, %853, !dbg !5872         ; [#uses=1 type=i32] [debug line = 191:18]
  %855 = add nsw i32 %851, %854, !dbg !5872       ; [#uses=1 type=i32] [debug line = 191:18]
  %856 = sext i32 %855 to i64, !dbg !5872         ; [#uses=1 type=i64] [debug line = 191:18]
  %857 = load i32* %co, align 4, !dbg !5872       ; [#uses=1 type=i32] [debug line = 191:18]
  %858 = sdiv i32 %857, 4, !dbg !5872             ; [#uses=1 type=i32] [debug line = 191:18]
  %859 = load i32* %i1, align 4, !dbg !5872       ; [#uses=1 type=i32] [debug line = 191:18]
  %860 = mul nsw i32 %859, 6, !dbg !5872          ; [#uses=1 type=i32] [debug line = 191:18]
  %861 = add nsw i32 %858, %860, !dbg !5872       ; [#uses=1 type=i32] [debug line = 191:18]
  %862 = sext i32 %861 to i64, !dbg !5872         ; [#uses=1 type=i64] [debug line = 191:18]
  %863 = getelementptr inbounds [96 x [96 x [1 x [1 x float]]]]* @ShuffleConvs_2_DownsampleUnit_conv2l_weight, i32 0, i64 %862, !dbg !5872 ; [#uses=1 type=[96 x [1 x [1 x float]]]*] [debug line = 191:18]
  %864 = getelementptr inbounds [96 x [1 x [1 x float]]]* %863, i32 0, i64 %856, !dbg !5872 ; [#uses=1 type=[1 x [1 x float]]*] [debug line = 191:18]
  %865 = getelementptr inbounds [1 x [1 x float]]* %864, i32 0, i64 0, !dbg !5872 ; [#uses=1 type=[1 x float]*] [debug line = 191:18]
  %866 = getelementptr inbounds [1 x float]* %865, i32 0, i64 0, !dbg !5872 ; [#uses=1 type=float*] [debug line = 191:18]
  store float %850, float* %866, align 4, !dbg !5872 ; [debug line = 191:18]
  %867 = load i32* %ci, align 4, !dbg !5873       ; [#uses=1 type=i32] [debug line = 192:18]
  %868 = sext i32 %867 to i64, !dbg !5873         ; [#uses=1 type=i64] [debug line = 192:18]
  %869 = load i32* %co, align 4, !dbg !5873       ; [#uses=1 type=i32] [debug line = 192:18]
  %870 = add nsw i32 %869, 3192, !dbg !5873       ; [#uses=1 type=i32] [debug line = 192:18]
  %871 = load i32* %i1, align 4, !dbg !5873       ; [#uses=1 type=i32] [debug line = 192:18]
  %872 = mul nsw i32 24, %871, !dbg !5873         ; [#uses=1 type=i32] [debug line = 192:18]
  %873 = add nsw i32 %870, %872, !dbg !5873       ; [#uses=1 type=i32] [debug line = 192:18]
  %874 = sext i32 %873 to i64, !dbg !5873         ; [#uses=1 type=i64] [debug line = 192:18]
  %875 = load [24 x [1 x [1 x float]]]** %4, align 8, !dbg !5873 ; [#uses=1 type=[24 x [1 x [1 x float]]]*] [debug line = 192:18]
  %876 = getelementptr inbounds [24 x [1 x [1 x float]]]* %875, i64 %874, !dbg !5873 ; [#uses=1 type=[24 x [1 x [1 x float]]]*] [debug line = 192:18]
  %877 = getelementptr inbounds [24 x [1 x [1 x float]]]* %876, i32 0, i64 %868, !dbg !5873 ; [#uses=1 type=[1 x [1 x float]]*] [debug line = 192:18]
  %878 = getelementptr inbounds [1 x [1 x float]]* %877, i32 0, i64 0, !dbg !5873 ; [#uses=1 type=[1 x float]*] [debug line = 192:18]
  %879 = getelementptr inbounds [1 x float]* %878, i32 0, i64 0, !dbg !5873 ; [#uses=1 type=float*] [debug line = 192:18]
  %880 = load float* %879, align 4, !dbg !5873    ; [#uses=1 type=float] [debug line = 192:18]
  %881 = load i32* %ci, align 4, !dbg !5873       ; [#uses=1 type=i32] [debug line = 192:18]
  %882 = load i32* %co, align 4, !dbg !5873       ; [#uses=1 type=i32] [debug line = 192:18]
  %883 = srem i32 %882, 4, !dbg !5873             ; [#uses=1 type=i32] [debug line = 192:18]
  %884 = mul nsw i32 24, %883, !dbg !5873         ; [#uses=1 type=i32] [debug line = 192:18]
  %885 = add nsw i32 %881, %884, !dbg !5873       ; [#uses=1 type=i32] [debug line = 192:18]
  %886 = sext i32 %885 to i64, !dbg !5873         ; [#uses=1 type=i64] [debug line = 192:18]
  %887 = load i32* %co, align 4, !dbg !5873       ; [#uses=1 type=i32] [debug line = 192:18]
  %888 = sdiv i32 %887, 4, !dbg !5873             ; [#uses=1 type=i32] [debug line = 192:18]
  %889 = load i32* %i1, align 4, !dbg !5873       ; [#uses=1 type=i32] [debug line = 192:18]
  %890 = mul nsw i32 %889, 6, !dbg !5873          ; [#uses=1 type=i32] [debug line = 192:18]
  %891 = add nsw i32 %888, %890, !dbg !5873       ; [#uses=1 type=i32] [debug line = 192:18]
  %892 = sext i32 %891 to i64, !dbg !5873         ; [#uses=1 type=i64] [debug line = 192:18]
  %893 = getelementptr inbounds [96 x [96 x [1 x [1 x float]]]]* @ShuffleConvs_2_ShuffleUnit2_0_conv1_weight, i32 0, i64 %892, !dbg !5873 ; [#uses=1 type=[96 x [1 x [1 x float]]]*] [debug line = 192:18]
  %894 = getelementptr inbounds [96 x [1 x [1 x float]]]* %893, i32 0, i64 %886, !dbg !5873 ; [#uses=1 type=[1 x [1 x float]]*] [debug line = 192:18]
  %895 = getelementptr inbounds [1 x [1 x float]]* %894, i32 0, i64 0, !dbg !5873 ; [#uses=1 type=[1 x float]*] [debug line = 192:18]
  %896 = getelementptr inbounds [1 x float]* %895, i32 0, i64 0, !dbg !5873 ; [#uses=1 type=float*] [debug line = 192:18]
  store float %880, float* %896, align 4, !dbg !5873 ; [debug line = 192:18]
  %897 = load i32* %ci, align 4, !dbg !5874       ; [#uses=1 type=i32] [debug line = 193:18]
  %898 = sext i32 %897 to i64, !dbg !5874         ; [#uses=1 type=i64] [debug line = 193:18]
  %899 = load i32* %co, align 4, !dbg !5874       ; [#uses=1 type=i32] [debug line = 193:18]
  %900 = add nsw i32 %899, 3576, !dbg !5874       ; [#uses=1 type=i32] [debug line = 193:18]
  %901 = load i32* %i1, align 4, !dbg !5874       ; [#uses=1 type=i32] [debug line = 193:18]
  %902 = mul nsw i32 24, %901, !dbg !5874         ; [#uses=1 type=i32] [debug line = 193:18]
  %903 = add nsw i32 %900, %902, !dbg !5874       ; [#uses=1 type=i32] [debug line = 193:18]
  %904 = sext i32 %903 to i64, !dbg !5874         ; [#uses=1 type=i64] [debug line = 193:18]
  %905 = load [24 x [1 x [1 x float]]]** %4, align 8, !dbg !5874 ; [#uses=1 type=[24 x [1 x [1 x float]]]*] [debug line = 193:18]
  %906 = getelementptr inbounds [24 x [1 x [1 x float]]]* %905, i64 %904, !dbg !5874 ; [#uses=1 type=[24 x [1 x [1 x float]]]*] [debug line = 193:18]
  %907 = getelementptr inbounds [24 x [1 x [1 x float]]]* %906, i32 0, i64 %898, !dbg !5874 ; [#uses=1 type=[1 x [1 x float]]*] [debug line = 193:18]
  %908 = getelementptr inbounds [1 x [1 x float]]* %907, i32 0, i64 0, !dbg !5874 ; [#uses=1 type=[1 x float]*] [debug line = 193:18]
  %909 = getelementptr inbounds [1 x float]* %908, i32 0, i64 0, !dbg !5874 ; [#uses=1 type=float*] [debug line = 193:18]
  %910 = load float* %909, align 4, !dbg !5874    ; [#uses=1 type=float] [debug line = 193:18]
  %911 = load i32* %ci, align 4, !dbg !5874       ; [#uses=1 type=i32] [debug line = 193:18]
  %912 = load i32* %co, align 4, !dbg !5874       ; [#uses=1 type=i32] [debug line = 193:18]
  %913 = srem i32 %912, 4, !dbg !5874             ; [#uses=1 type=i32] [debug line = 193:18]
  %914 = mul nsw i32 24, %913, !dbg !5874         ; [#uses=1 type=i32] [debug line = 193:18]
  %915 = add nsw i32 %911, %914, !dbg !5874       ; [#uses=1 type=i32] [debug line = 193:18]
  %916 = sext i32 %915 to i64, !dbg !5874         ; [#uses=1 type=i64] [debug line = 193:18]
  %917 = load i32* %co, align 4, !dbg !5874       ; [#uses=1 type=i32] [debug line = 193:18]
  %918 = sdiv i32 %917, 4, !dbg !5874             ; [#uses=1 type=i32] [debug line = 193:18]
  %919 = load i32* %i1, align 4, !dbg !5874       ; [#uses=1 type=i32] [debug line = 193:18]
  %920 = mul nsw i32 %919, 6, !dbg !5874          ; [#uses=1 type=i32] [debug line = 193:18]
  %921 = add nsw i32 %918, %920, !dbg !5874       ; [#uses=1 type=i32] [debug line = 193:18]
  %922 = sext i32 %921 to i64, !dbg !5874         ; [#uses=1 type=i64] [debug line = 193:18]
  %923 = getelementptr inbounds [96 x [96 x [1 x [1 x float]]]]* @ShuffleConvs_2_ShuffleUnit2_0_conv3_weight, i32 0, i64 %922, !dbg !5874 ; [#uses=1 type=[96 x [1 x [1 x float]]]*] [debug line = 193:18]
  %924 = getelementptr inbounds [96 x [1 x [1 x float]]]* %923, i32 0, i64 %916, !dbg !5874 ; [#uses=1 type=[1 x [1 x float]]*] [debug line = 193:18]
  %925 = getelementptr inbounds [1 x [1 x float]]* %924, i32 0, i64 0, !dbg !5874 ; [#uses=1 type=[1 x float]*] [debug line = 193:18]
  %926 = getelementptr inbounds [1 x float]* %925, i32 0, i64 0, !dbg !5874 ; [#uses=1 type=float*] [debug line = 193:18]
  store float %910, float* %926, align 4, !dbg !5874 ; [debug line = 193:18]
  %927 = load i32* %ci, align 4, !dbg !5875       ; [#uses=1 type=i32] [debug line = 194:18]
  %928 = sext i32 %927 to i64, !dbg !5875         ; [#uses=1 type=i64] [debug line = 194:18]
  %929 = load i32* %co, align 4, !dbg !5875       ; [#uses=1 type=i32] [debug line = 194:18]
  %930 = add nsw i32 %929, 3960, !dbg !5875       ; [#uses=1 type=i32] [debug line = 194:18]
  %931 = load i32* %i1, align 4, !dbg !5875       ; [#uses=1 type=i32] [debug line = 194:18]
  %932 = mul nsw i32 24, %931, !dbg !5875         ; [#uses=1 type=i32] [debug line = 194:18]
  %933 = add nsw i32 %930, %932, !dbg !5875       ; [#uses=1 type=i32] [debug line = 194:18]
  %934 = sext i32 %933 to i64, !dbg !5875         ; [#uses=1 type=i64] [debug line = 194:18]
  %935 = load [24 x [1 x [1 x float]]]** %4, align 8, !dbg !5875 ; [#uses=1 type=[24 x [1 x [1 x float]]]*] [debug line = 194:18]
  %936 = getelementptr inbounds [24 x [1 x [1 x float]]]* %935, i64 %934, !dbg !5875 ; [#uses=1 type=[24 x [1 x [1 x float]]]*] [debug line = 194:18]
  %937 = getelementptr inbounds [24 x [1 x [1 x float]]]* %936, i32 0, i64 %928, !dbg !5875 ; [#uses=1 type=[1 x [1 x float]]*] [debug line = 194:18]
  %938 = getelementptr inbounds [1 x [1 x float]]* %937, i32 0, i64 0, !dbg !5875 ; [#uses=1 type=[1 x float]*] [debug line = 194:18]
  %939 = getelementptr inbounds [1 x float]* %938, i32 0, i64 0, !dbg !5875 ; [#uses=1 type=float*] [debug line = 194:18]
  %940 = load float* %939, align 4, !dbg !5875    ; [#uses=1 type=float] [debug line = 194:18]
  %941 = load i32* %ci, align 4, !dbg !5875       ; [#uses=1 type=i32] [debug line = 194:18]
  %942 = load i32* %co, align 4, !dbg !5875       ; [#uses=1 type=i32] [debug line = 194:18]
  %943 = srem i32 %942, 4, !dbg !5875             ; [#uses=1 type=i32] [debug line = 194:18]
  %944 = mul nsw i32 24, %943, !dbg !5875         ; [#uses=1 type=i32] [debug line = 194:18]
  %945 = add nsw i32 %941, %944, !dbg !5875       ; [#uses=1 type=i32] [debug line = 194:18]
  %946 = sext i32 %945 to i64, !dbg !5875         ; [#uses=1 type=i64] [debug line = 194:18]
  %947 = load i32* %co, align 4, !dbg !5875       ; [#uses=1 type=i32] [debug line = 194:18]
  %948 = sdiv i32 %947, 4, !dbg !5875             ; [#uses=1 type=i32] [debug line = 194:18]
  %949 = load i32* %i1, align 4, !dbg !5875       ; [#uses=1 type=i32] [debug line = 194:18]
  %950 = mul nsw i32 %949, 6, !dbg !5875          ; [#uses=1 type=i32] [debug line = 194:18]
  %951 = add nsw i32 %948, %950, !dbg !5875       ; [#uses=1 type=i32] [debug line = 194:18]
  %952 = sext i32 %951 to i64, !dbg !5875         ; [#uses=1 type=i64] [debug line = 194:18]
  %953 = getelementptr inbounds [96 x [96 x [1 x [1 x float]]]]* @ShuffleConvs_2_ShuffleUnit2_1_conv1_weight, i32 0, i64 %952, !dbg !5875 ; [#uses=1 type=[96 x [1 x [1 x float]]]*] [debug line = 194:18]
  %954 = getelementptr inbounds [96 x [1 x [1 x float]]]* %953, i32 0, i64 %946, !dbg !5875 ; [#uses=1 type=[1 x [1 x float]]*] [debug line = 194:18]
  %955 = getelementptr inbounds [1 x [1 x float]]* %954, i32 0, i64 0, !dbg !5875 ; [#uses=1 type=[1 x float]*] [debug line = 194:18]
  %956 = getelementptr inbounds [1 x float]* %955, i32 0, i64 0, !dbg !5875 ; [#uses=1 type=float*] [debug line = 194:18]
  store float %940, float* %956, align 4, !dbg !5875 ; [debug line = 194:18]
  %957 = load i32* %ci, align 4, !dbg !5876       ; [#uses=1 type=i32] [debug line = 195:18]
  %958 = sext i32 %957 to i64, !dbg !5876         ; [#uses=1 type=i64] [debug line = 195:18]
  %959 = load i32* %co, align 4, !dbg !5876       ; [#uses=1 type=i32] [debug line = 195:18]
  %960 = add nsw i32 %959, 4344, !dbg !5876       ; [#uses=1 type=i32] [debug line = 195:18]
  %961 = load i32* %i1, align 4, !dbg !5876       ; [#uses=1 type=i32] [debug line = 195:18]
  %962 = mul nsw i32 24, %961, !dbg !5876         ; [#uses=1 type=i32] [debug line = 195:18]
  %963 = add nsw i32 %960, %962, !dbg !5876       ; [#uses=1 type=i32] [debug line = 195:18]
  %964 = sext i32 %963 to i64, !dbg !5876         ; [#uses=1 type=i64] [debug line = 195:18]
  %965 = load [24 x [1 x [1 x float]]]** %4, align 8, !dbg !5876 ; [#uses=1 type=[24 x [1 x [1 x float]]]*] [debug line = 195:18]
  %966 = getelementptr inbounds [24 x [1 x [1 x float]]]* %965, i64 %964, !dbg !5876 ; [#uses=1 type=[24 x [1 x [1 x float]]]*] [debug line = 195:18]
  %967 = getelementptr inbounds [24 x [1 x [1 x float]]]* %966, i32 0, i64 %958, !dbg !5876 ; [#uses=1 type=[1 x [1 x float]]*] [debug line = 195:18]
  %968 = getelementptr inbounds [1 x [1 x float]]* %967, i32 0, i64 0, !dbg !5876 ; [#uses=1 type=[1 x float]*] [debug line = 195:18]
  %969 = getelementptr inbounds [1 x float]* %968, i32 0, i64 0, !dbg !5876 ; [#uses=1 type=float*] [debug line = 195:18]
  %970 = load float* %969, align 4, !dbg !5876    ; [#uses=1 type=float] [debug line = 195:18]
  %971 = load i32* %ci, align 4, !dbg !5876       ; [#uses=1 type=i32] [debug line = 195:18]
  %972 = load i32* %co, align 4, !dbg !5876       ; [#uses=1 type=i32] [debug line = 195:18]
  %973 = srem i32 %972, 4, !dbg !5876             ; [#uses=1 type=i32] [debug line = 195:18]
  %974 = mul nsw i32 24, %973, !dbg !5876         ; [#uses=1 type=i32] [debug line = 195:18]
  %975 = add nsw i32 %971, %974, !dbg !5876       ; [#uses=1 type=i32] [debug line = 195:18]
  %976 = sext i32 %975 to i64, !dbg !5876         ; [#uses=1 type=i64] [debug line = 195:18]
  %977 = load i32* %co, align 4, !dbg !5876       ; [#uses=1 type=i32] [debug line = 195:18]
  %978 = sdiv i32 %977, 4, !dbg !5876             ; [#uses=1 type=i32] [debug line = 195:18]
  %979 = load i32* %i1, align 4, !dbg !5876       ; [#uses=1 type=i32] [debug line = 195:18]
  %980 = mul nsw i32 %979, 6, !dbg !5876          ; [#uses=1 type=i32] [debug line = 195:18]
  %981 = add nsw i32 %978, %980, !dbg !5876       ; [#uses=1 type=i32] [debug line = 195:18]
  %982 = sext i32 %981 to i64, !dbg !5876         ; [#uses=1 type=i64] [debug line = 195:18]
  %983 = getelementptr inbounds [96 x [96 x [1 x [1 x float]]]]* @ShuffleConvs_2_ShuffleUnit2_1_conv3_weight, i32 0, i64 %982, !dbg !5876 ; [#uses=1 type=[96 x [1 x [1 x float]]]*] [debug line = 195:18]
  %984 = getelementptr inbounds [96 x [1 x [1 x float]]]* %983, i32 0, i64 %976, !dbg !5876 ; [#uses=1 type=[1 x [1 x float]]*] [debug line = 195:18]
  %985 = getelementptr inbounds [1 x [1 x float]]* %984, i32 0, i64 0, !dbg !5876 ; [#uses=1 type=[1 x float]*] [debug line = 195:18]
  %986 = getelementptr inbounds [1 x float]* %985, i32 0, i64 0, !dbg !5876 ; [#uses=1 type=float*] [debug line = 195:18]
  store float %970, float* %986, align 4, !dbg !5876 ; [debug line = 195:18]
  %987 = load i32* %ci, align 4, !dbg !5877       ; [#uses=1 type=i32] [debug line = 196:18]
  %988 = sext i32 %987 to i64, !dbg !5877         ; [#uses=1 type=i64] [debug line = 196:18]
  %989 = load i32* %co, align 4, !dbg !5877       ; [#uses=1 type=i32] [debug line = 196:18]
  %990 = add nsw i32 %989, 4728, !dbg !5877       ; [#uses=1 type=i32] [debug line = 196:18]
  %991 = load i32* %i1, align 4, !dbg !5877       ; [#uses=1 type=i32] [debug line = 196:18]
  %992 = mul nsw i32 24, %991, !dbg !5877         ; [#uses=1 type=i32] [debug line = 196:18]
  %993 = add nsw i32 %990, %992, !dbg !5877       ; [#uses=1 type=i32] [debug line = 196:18]
  %994 = sext i32 %993 to i64, !dbg !5877         ; [#uses=1 type=i64] [debug line = 196:18]
  %995 = load [24 x [1 x [1 x float]]]** %4, align 8, !dbg !5877 ; [#uses=1 type=[24 x [1 x [1 x float]]]*] [debug line = 196:18]
  %996 = getelementptr inbounds [24 x [1 x [1 x float]]]* %995, i64 %994, !dbg !5877 ; [#uses=1 type=[24 x [1 x [1 x float]]]*] [debug line = 196:18]
  %997 = getelementptr inbounds [24 x [1 x [1 x float]]]* %996, i32 0, i64 %988, !dbg !5877 ; [#uses=1 type=[1 x [1 x float]]*] [debug line = 196:18]
  %998 = getelementptr inbounds [1 x [1 x float]]* %997, i32 0, i64 0, !dbg !5877 ; [#uses=1 type=[1 x float]*] [debug line = 196:18]
  %999 = getelementptr inbounds [1 x float]* %998, i32 0, i64 0, !dbg !5877 ; [#uses=1 type=float*] [debug line = 196:18]
  %1000 = load float* %999, align 4, !dbg !5877   ; [#uses=1 type=float] [debug line = 196:18]
  %1001 = load i32* %ci, align 4, !dbg !5877      ; [#uses=1 type=i32] [debug line = 196:18]
  %1002 = load i32* %co, align 4, !dbg !5877      ; [#uses=1 type=i32] [debug line = 196:18]
  %1003 = srem i32 %1002, 4, !dbg !5877           ; [#uses=1 type=i32] [debug line = 196:18]
  %1004 = mul nsw i32 24, %1003, !dbg !5877       ; [#uses=1 type=i32] [debug line = 196:18]
  %1005 = add nsw i32 %1001, %1004, !dbg !5877    ; [#uses=1 type=i32] [debug line = 196:18]
  %1006 = sext i32 %1005 to i64, !dbg !5877       ; [#uses=1 type=i64] [debug line = 196:18]
  %1007 = load i32* %co, align 4, !dbg !5877      ; [#uses=1 type=i32] [debug line = 196:18]
  %1008 = sdiv i32 %1007, 4, !dbg !5877           ; [#uses=1 type=i32] [debug line = 196:18]
  %1009 = load i32* %i1, align 4, !dbg !5877      ; [#uses=1 type=i32] [debug line = 196:18]
  %1010 = mul nsw i32 %1009, 6, !dbg !5877        ; [#uses=1 type=i32] [debug line = 196:18]
  %1011 = add nsw i32 %1008, %1010, !dbg !5877    ; [#uses=1 type=i32] [debug line = 196:18]
  %1012 = sext i32 %1011 to i64, !dbg !5877       ; [#uses=1 type=i64] [debug line = 196:18]
  %1013 = getelementptr inbounds [96 x [96 x [1 x [1 x float]]]]* @ShuffleConvs_2_ShuffleUnit2_2_conv1_weight, i32 0, i64 %1012, !dbg !5877 ; [#uses=1 type=[96 x [1 x [1 x float]]]*] [debug line = 196:18]
  %1014 = getelementptr inbounds [96 x [1 x [1 x float]]]* %1013, i32 0, i64 %1006, !dbg !5877 ; [#uses=1 type=[1 x [1 x float]]*] [debug line = 196:18]
  %1015 = getelementptr inbounds [1 x [1 x float]]* %1014, i32 0, i64 0, !dbg !5877 ; [#uses=1 type=[1 x float]*] [debug line = 196:18]
  %1016 = getelementptr inbounds [1 x float]* %1015, i32 0, i64 0, !dbg !5877 ; [#uses=1 type=float*] [debug line = 196:18]
  store float %1000, float* %1016, align 4, !dbg !5877 ; [debug line = 196:18]
  %1017 = load i32* %ci, align 4, !dbg !5878      ; [#uses=1 type=i32] [debug line = 197:18]
  %1018 = sext i32 %1017 to i64, !dbg !5878       ; [#uses=1 type=i64] [debug line = 197:18]
  %1019 = load i32* %co, align 4, !dbg !5878      ; [#uses=1 type=i32] [debug line = 197:18]
  %1020 = add nsw i32 %1019, 5112, !dbg !5878     ; [#uses=1 type=i32] [debug line = 197:18]
  %1021 = load i32* %i1, align 4, !dbg !5878      ; [#uses=1 type=i32] [debug line = 197:18]
  %1022 = mul nsw i32 24, %1021, !dbg !5878       ; [#uses=1 type=i32] [debug line = 197:18]
  %1023 = add nsw i32 %1020, %1022, !dbg !5878    ; [#uses=1 type=i32] [debug line = 197:18]
  %1024 = sext i32 %1023 to i64, !dbg !5878       ; [#uses=1 type=i64] [debug line = 197:18]
  %1025 = load [24 x [1 x [1 x float]]]** %4, align 8, !dbg !5878 ; [#uses=1 type=[24 x [1 x [1 x float]]]*] [debug line = 197:18]
  %1026 = getelementptr inbounds [24 x [1 x [1 x float]]]* %1025, i64 %1024, !dbg !5878 ; [#uses=1 type=[24 x [1 x [1 x float]]]*] [debug line = 197:18]
  %1027 = getelementptr inbounds [24 x [1 x [1 x float]]]* %1026, i32 0, i64 %1018, !dbg !5878 ; [#uses=1 type=[1 x [1 x float]]*] [debug line = 197:18]
  %1028 = getelementptr inbounds [1 x [1 x float]]* %1027, i32 0, i64 0, !dbg !5878 ; [#uses=1 type=[1 x float]*] [debug line = 197:18]
  %1029 = getelementptr inbounds [1 x float]* %1028, i32 0, i64 0, !dbg !5878 ; [#uses=1 type=float*] [debug line = 197:18]
  %1030 = load float* %1029, align 4, !dbg !5878  ; [#uses=1 type=float] [debug line = 197:18]
  %1031 = load i32* %ci, align 4, !dbg !5878      ; [#uses=1 type=i32] [debug line = 197:18]
  %1032 = load i32* %co, align 4, !dbg !5878      ; [#uses=1 type=i32] [debug line = 197:18]
  %1033 = srem i32 %1032, 4, !dbg !5878           ; [#uses=1 type=i32] [debug line = 197:18]
  %1034 = mul nsw i32 24, %1033, !dbg !5878       ; [#uses=1 type=i32] [debug line = 197:18]
  %1035 = add nsw i32 %1031, %1034, !dbg !5878    ; [#uses=1 type=i32] [debug line = 197:18]
  %1036 = sext i32 %1035 to i64, !dbg !5878       ; [#uses=1 type=i64] [debug line = 197:18]
  %1037 = load i32* %co, align 4, !dbg !5878      ; [#uses=1 type=i32] [debug line = 197:18]
  %1038 = sdiv i32 %1037, 4, !dbg !5878           ; [#uses=1 type=i32] [debug line = 197:18]
  %1039 = load i32* %i1, align 4, !dbg !5878      ; [#uses=1 type=i32] [debug line = 197:18]
  %1040 = mul nsw i32 %1039, 6, !dbg !5878        ; [#uses=1 type=i32] [debug line = 197:18]
  %1041 = add nsw i32 %1038, %1040, !dbg !5878    ; [#uses=1 type=i32] [debug line = 197:18]
  %1042 = sext i32 %1041 to i64, !dbg !5878       ; [#uses=1 type=i64] [debug line = 197:18]
  %1043 = getelementptr inbounds [96 x [96 x [1 x [1 x float]]]]* @ShuffleConvs_2_ShuffleUnit2_2_conv3_weight, i32 0, i64 %1042, !dbg !5878 ; [#uses=1 type=[96 x [1 x [1 x float]]]*] [debug line = 197:18]
  %1044 = getelementptr inbounds [96 x [1 x [1 x float]]]* %1043, i32 0, i64 %1036, !dbg !5878 ; [#uses=1 type=[1 x [1 x float]]*] [debug line = 197:18]
  %1045 = getelementptr inbounds [1 x [1 x float]]* %1044, i32 0, i64 0, !dbg !5878 ; [#uses=1 type=[1 x float]*] [debug line = 197:18]
  %1046 = getelementptr inbounds [1 x float]* %1045, i32 0, i64 0, !dbg !5878 ; [#uses=1 type=float*] [debug line = 197:18]
  store float %1030, float* %1046, align 4, !dbg !5878 ; [debug line = 197:18]
  br label %1047, !dbg !5879                      ; [debug line = 198:14]

; <label>:1047                                    ; preds = %776
  %1048 = load i32* %i1, align 4, !dbg !5880      ; [#uses=1 type=i32] [debug line = 188:36]
  %1049 = add nsw i32 %1048, 1, !dbg !5880        ; [#uses=1 type=i32] [debug line = 188:36]
  store i32 %1049, i32* %i1, align 4, !dbg !5880  ; [debug line = 188:36]
  br label %773, !dbg !5880                       ; [debug line = 188:36]

; <label>:1050                                    ; preds = %773
  br label %1051, !dbg !5881                      ; [debug line = 199:10]

; <label>:1051                                    ; preds = %1050
  %1052 = load i32* %ci, align 4, !dbg !5882      ; [#uses=1 type=i32] [debug line = 155:34]
  %1053 = add nsw i32 %1052, 1, !dbg !5882        ; [#uses=1 type=i32] [debug line = 155:34]
  store i32 %1053, i32* %ci, align 4, !dbg !5882  ; [debug line = 155:34]
  br label %21, !dbg !5882                        ; [debug line = 155:34]

; <label>:1054                                    ; preds = %21
  br label %1055, !dbg !5883                      ; [debug line = 200:6]

; <label>:1055                                    ; preds = %1054
  %1056 = load i32* %co, align 4, !dbg !5884      ; [#uses=1 type=i32] [debug line = 154:31]
  %1057 = add nsw i32 %1056, 1, !dbg !5884        ; [#uses=1 type=i32] [debug line = 154:31]
  store i32 %1057, i32* %co, align 4, !dbg !5884  ; [debug line = 154:31]
  br label %17, !dbg !5884                        ; [debug line = 154:31]

; <label>:1058                                    ; preds = %17
  call void @llvm.dbg.declare(metadata !{i32* %co2}, metadata !5885), !dbg !5887 ; [debug line = 202:14] [debug variable = co]
  store i32 0, i32* %co2, align 4, !dbg !5888     ; [debug line = 202:20]
  br label %1059, !dbg !5888                      ; [debug line = 202:20]

; <label>:1059                                    ; preds = %1644, %1058
  %1060 = load i32* %co2, align 4, !dbg !5888     ; [#uses=1 type=i32] [debug line = 202:20]
  %1061 = icmp slt i32 %1060, 24, !dbg !5888      ; [#uses=1 type=i1] [debug line = 202:20]
  br i1 %1061, label %1062, label %1647, !dbg !5888 ; [debug line = 202:20]

; <label>:1062                                    ; preds = %1059
  call void @llvm.dbg.declare(metadata !{i32* %w}, metadata !5889), !dbg !5892 ; [debug line = 203:18] [debug variable = w]
  store i32 0, i32* %w, align 4, !dbg !5893       ; [debug line = 203:23]
  br label %1063, !dbg !5893                      ; [debug line = 203:23]

; <label>:1063                                    ; preds = %1640, %1062
  %1064 = load i32* %w, align 4, !dbg !5893       ; [#uses=1 type=i32] [debug line = 203:23]
  %1065 = icmp slt i32 %1064, 3, !dbg !5893       ; [#uses=1 type=i1] [debug line = 203:23]
  br i1 %1065, label %1066, label %1643, !dbg !5893 ; [debug line = 203:23]

; <label>:1066                                    ; preds = %1063
  call void @llvm.dbg.declare(metadata !{i32* %h}, metadata !5894), !dbg !5897 ; [debug line = 204:22] [debug variable = h]
  store i32 0, i32* %h, align 4, !dbg !5898       ; [debug line = 204:27]
  br label %1067, !dbg !5898                      ; [debug line = 204:27]

; <label>:1067                                    ; preds = %1636, %1066
  %1068 = load i32* %h, align 4, !dbg !5898       ; [#uses=1 type=i32] [debug line = 204:27]
  %1069 = icmp slt i32 %1068, 3, !dbg !5898       ; [#uses=1 type=i1] [debug line = 204:27]
  br i1 %1069, label %1070, label %1639, !dbg !5898 ; [debug line = 204:27]

; <label>:1070                                    ; preds = %1067
  %1071 = load i32* %h, align 4, !dbg !5899       ; [#uses=1 type=i32] [debug line = 206:18]
  %1072 = sext i32 %1071 to i64, !dbg !5899       ; [#uses=1 type=i64] [debug line = 206:18]
  %1073 = load i32* %w, align 4, !dbg !5899       ; [#uses=1 type=i32] [debug line = 206:18]
  %1074 = sext i32 %1073 to i64, !dbg !5899       ; [#uses=1 type=i64] [debug line = 206:18]
  %1075 = load i32* %co2, align 4, !dbg !5899     ; [#uses=1 type=i32] [debug line = 206:18]
  %1076 = sext i32 %1075 to i64, !dbg !5899       ; [#uses=1 type=i64] [debug line = 206:18]
  %1077 = load [1 x [3 x [3 x float]]]** %3, align 8, !dbg !5899 ; [#uses=1 type=[1 x [3 x [3 x float]]]*] [debug line = 206:18]
  %1078 = getelementptr inbounds [1 x [3 x [3 x float]]]* %1077, i64 %1076, !dbg !5899 ; [#uses=1 type=[1 x [3 x [3 x float]]]*] [debug line = 206:18]
  %1079 = getelementptr inbounds [1 x [3 x [3 x float]]]* %1078, i32 0, i64 0, !dbg !5899 ; [#uses=1 type=[3 x [3 x float]]*] [debug line = 206:18]
  %1080 = getelementptr inbounds [3 x [3 x float]]* %1079, i32 0, i64 %1074, !dbg !5899 ; [#uses=1 type=[3 x float]*] [debug line = 206:18]
  %1081 = getelementptr inbounds [3 x float]* %1080, i32 0, i64 %1072, !dbg !5899 ; [#uses=1 type=float*] [debug line = 206:18]
  %1082 = load float* %1081, align 4, !dbg !5899  ; [#uses=1 type=float] [debug line = 206:18]
  %1083 = load i32* %h, align 4, !dbg !5899       ; [#uses=1 type=i32] [debug line = 206:18]
  %1084 = sext i32 %1083 to i64, !dbg !5899       ; [#uses=1 type=i64] [debug line = 206:18]
  %1085 = load i32* %w, align 4, !dbg !5899       ; [#uses=1 type=i32] [debug line = 206:18]
  %1086 = sext i32 %1085 to i64, !dbg !5899       ; [#uses=1 type=i64] [debug line = 206:18]
  %1087 = load i32* %co2, align 4, !dbg !5899     ; [#uses=1 type=i32] [debug line = 206:18]
  %1088 = sext i32 %1087 to i64, !dbg !5899       ; [#uses=1 type=i64] [debug line = 206:18]
  %1089 = getelementptr inbounds [24 x [1 x [3 x [3 x float]]]]* @ShuffleConvs_0_DownsampleUnit_conv2r_weight, i32 0, i64 %1088, !dbg !5899 ; [#uses=1 type=[1 x [3 x [3 x float]]]*] [debug line = 206:18]
  %1090 = getelementptr inbounds [1 x [3 x [3 x float]]]* %1089, i32 0, i64 0, !dbg !5899 ; [#uses=1 type=[3 x [3 x float]]*] [debug line = 206:18]
  %1091 = getelementptr inbounds [3 x [3 x float]]* %1090, i32 0, i64 %1086, !dbg !5899 ; [#uses=1 type=[3 x float]*] [debug line = 206:18]
  %1092 = getelementptr inbounds [3 x float]* %1091, i32 0, i64 %1084, !dbg !5899 ; [#uses=1 type=float*] [debug line = 206:18]
  store float %1082, float* %1092, align 4, !dbg !5899 ; [debug line = 206:18]
  %1093 = load i32* %h, align 4, !dbg !5901       ; [#uses=1 type=i32] [debug line = 207:18]
  %1094 = sext i32 %1093 to i64, !dbg !5901       ; [#uses=1 type=i64] [debug line = 207:18]
  %1095 = load i32* %w, align 4, !dbg !5901       ; [#uses=1 type=i32] [debug line = 207:18]
  %1096 = sext i32 %1095 to i64, !dbg !5901       ; [#uses=1 type=i64] [debug line = 207:18]
  %1097 = load i32* %co2, align 4, !dbg !5901     ; [#uses=1 type=i32] [debug line = 207:18]
  %1098 = add nsw i32 %1097, 24, !dbg !5901       ; [#uses=1 type=i32] [debug line = 207:18]
  %1099 = sext i32 %1098 to i64, !dbg !5901       ; [#uses=1 type=i64] [debug line = 207:18]
  %1100 = load [1 x [3 x [3 x float]]]** %3, align 8, !dbg !5901 ; [#uses=1 type=[1 x [3 x [3 x float]]]*] [debug line = 207:18]
  %1101 = getelementptr inbounds [1 x [3 x [3 x float]]]* %1100, i64 %1099, !dbg !5901 ; [#uses=1 type=[1 x [3 x [3 x float]]]*] [debug line = 207:18]
  %1102 = getelementptr inbounds [1 x [3 x [3 x float]]]* %1101, i32 0, i64 0, !dbg !5901 ; [#uses=1 type=[3 x [3 x float]]*] [debug line = 207:18]
  %1103 = getelementptr inbounds [3 x [3 x float]]* %1102, i32 0, i64 %1096, !dbg !5901 ; [#uses=1 type=[3 x float]*] [debug line = 207:18]
  %1104 = getelementptr inbounds [3 x float]* %1103, i32 0, i64 %1094, !dbg !5901 ; [#uses=1 type=float*] [debug line = 207:18]
  %1105 = load float* %1104, align 4, !dbg !5901  ; [#uses=1 type=float] [debug line = 207:18]
  %1106 = load i32* %h, align 4, !dbg !5901       ; [#uses=1 type=i32] [debug line = 207:18]
  %1107 = sext i32 %1106 to i64, !dbg !5901       ; [#uses=1 type=i64] [debug line = 207:18]
  %1108 = load i32* %w, align 4, !dbg !5901       ; [#uses=1 type=i32] [debug line = 207:18]
  %1109 = sext i32 %1108 to i64, !dbg !5901       ; [#uses=1 type=i64] [debug line = 207:18]
  %1110 = load i32* %co2, align 4, !dbg !5901     ; [#uses=1 type=i32] [debug line = 207:18]
  %1111 = sext i32 %1110 to i64, !dbg !5901       ; [#uses=1 type=i64] [debug line = 207:18]
  %1112 = getelementptr inbounds [24 x [1 x [3 x [3 x float]]]]* @ShuffleConvs_0_DownsampleUnit_conv1l_weight, i32 0, i64 %1111, !dbg !5901 ; [#uses=1 type=[1 x [3 x [3 x float]]]*] [debug line = 207:18]
  %1113 = getelementptr inbounds [1 x [3 x [3 x float]]]* %1112, i32 0, i64 0, !dbg !5901 ; [#uses=1 type=[3 x [3 x float]]*] [debug line = 207:18]
  %1114 = getelementptr inbounds [3 x [3 x float]]* %1113, i32 0, i64 %1109, !dbg !5901 ; [#uses=1 type=[3 x float]*] [debug line = 207:18]
  %1115 = getelementptr inbounds [3 x float]* %1114, i32 0, i64 %1107, !dbg !5901 ; [#uses=1 type=float*] [debug line = 207:18]
  store float %1105, float* %1115, align 4, !dbg !5901 ; [debug line = 207:18]
  %1116 = load i32* %h, align 4, !dbg !5902       ; [#uses=1 type=i32] [debug line = 208:18]
  %1117 = sext i32 %1116 to i64, !dbg !5902       ; [#uses=1 type=i64] [debug line = 208:18]
  %1118 = load i32* %w, align 4, !dbg !5902       ; [#uses=1 type=i32] [debug line = 208:18]
  %1119 = sext i32 %1118 to i64, !dbg !5902       ; [#uses=1 type=i64] [debug line = 208:18]
  %1120 = load i32* %co2, align 4, !dbg !5902     ; [#uses=1 type=i32] [debug line = 208:18]
  %1121 = add nsw i32 %1120, 48, !dbg !5902       ; [#uses=1 type=i32] [debug line = 208:18]
  %1122 = sext i32 %1121 to i64, !dbg !5902       ; [#uses=1 type=i64] [debug line = 208:18]
  %1123 = load [1 x [3 x [3 x float]]]** %3, align 8, !dbg !5902 ; [#uses=1 type=[1 x [3 x [3 x float]]]*] [debug line = 208:18]
  %1124 = getelementptr inbounds [1 x [3 x [3 x float]]]* %1123, i64 %1122, !dbg !5902 ; [#uses=1 type=[1 x [3 x [3 x float]]]*] [debug line = 208:18]
  %1125 = getelementptr inbounds [1 x [3 x [3 x float]]]* %1124, i32 0, i64 0, !dbg !5902 ; [#uses=1 type=[3 x [3 x float]]*] [debug line = 208:18]
  %1126 = getelementptr inbounds [3 x [3 x float]]* %1125, i32 0, i64 %1119, !dbg !5902 ; [#uses=1 type=[3 x float]*] [debug line = 208:18]
  %1127 = getelementptr inbounds [3 x float]* %1126, i32 0, i64 %1117, !dbg !5902 ; [#uses=1 type=float*] [debug line = 208:18]
  %1128 = load float* %1127, align 4, !dbg !5902  ; [#uses=1 type=float] [debug line = 208:18]
  %1129 = load i32* %h, align 4, !dbg !5902       ; [#uses=1 type=i32] [debug line = 208:18]
  %1130 = sext i32 %1129 to i64, !dbg !5902       ; [#uses=1 type=i64] [debug line = 208:18]
  %1131 = load i32* %w, align 4, !dbg !5902       ; [#uses=1 type=i32] [debug line = 208:18]
  %1132 = sext i32 %1131 to i64, !dbg !5902       ; [#uses=1 type=i64] [debug line = 208:18]
  %1133 = load i32* %co2, align 4, !dbg !5902     ; [#uses=1 type=i32] [debug line = 208:18]
  %1134 = sext i32 %1133 to i64, !dbg !5902       ; [#uses=1 type=i64] [debug line = 208:18]
  %1135 = getelementptr inbounds [24 x [1 x [3 x [3 x float]]]]* @ShuffleConvs_0_ShuffleUnit0_0_conv2_weight, i32 0, i64 %1134, !dbg !5902 ; [#uses=1 type=[1 x [3 x [3 x float]]]*] [debug line = 208:18]
  %1136 = getelementptr inbounds [1 x [3 x [3 x float]]]* %1135, i32 0, i64 0, !dbg !5902 ; [#uses=1 type=[3 x [3 x float]]*] [debug line = 208:18]
  %1137 = getelementptr inbounds [3 x [3 x float]]* %1136, i32 0, i64 %1132, !dbg !5902 ; [#uses=1 type=[3 x float]*] [debug line = 208:18]
  %1138 = getelementptr inbounds [3 x float]* %1137, i32 0, i64 %1130, !dbg !5902 ; [#uses=1 type=float*] [debug line = 208:18]
  store float %1128, float* %1138, align 4, !dbg !5902 ; [debug line = 208:18]
  %1139 = load i32* %h, align 4, !dbg !5903       ; [#uses=1 type=i32] [debug line = 209:18]
  %1140 = sext i32 %1139 to i64, !dbg !5903       ; [#uses=1 type=i64] [debug line = 209:18]
  %1141 = load i32* %w, align 4, !dbg !5903       ; [#uses=1 type=i32] [debug line = 209:18]
  %1142 = sext i32 %1141 to i64, !dbg !5903       ; [#uses=1 type=i64] [debug line = 209:18]
  %1143 = load i32* %co2, align 4, !dbg !5903     ; [#uses=1 type=i32] [debug line = 209:18]
  %1144 = add nsw i32 %1143, 72, !dbg !5903       ; [#uses=1 type=i32] [debug line = 209:18]
  %1145 = sext i32 %1144 to i64, !dbg !5903       ; [#uses=1 type=i64] [debug line = 209:18]
  %1146 = load [1 x [3 x [3 x float]]]** %3, align 8, !dbg !5903 ; [#uses=1 type=[1 x [3 x [3 x float]]]*] [debug line = 209:18]
  %1147 = getelementptr inbounds [1 x [3 x [3 x float]]]* %1146, i64 %1145, !dbg !5903 ; [#uses=1 type=[1 x [3 x [3 x float]]]*] [debug line = 209:18]
  %1148 = getelementptr inbounds [1 x [3 x [3 x float]]]* %1147, i32 0, i64 0, !dbg !5903 ; [#uses=1 type=[3 x [3 x float]]*] [debug line = 209:18]
  %1149 = getelementptr inbounds [3 x [3 x float]]* %1148, i32 0, i64 %1142, !dbg !5903 ; [#uses=1 type=[3 x float]*] [debug line = 209:18]
  %1150 = getelementptr inbounds [3 x float]* %1149, i32 0, i64 %1140, !dbg !5903 ; [#uses=1 type=float*] [debug line = 209:18]
  %1151 = load float* %1150, align 4, !dbg !5903  ; [#uses=1 type=float] [debug line = 209:18]
  %1152 = load i32* %h, align 4, !dbg !5903       ; [#uses=1 type=i32] [debug line = 209:18]
  %1153 = sext i32 %1152 to i64, !dbg !5903       ; [#uses=1 type=i64] [debug line = 209:18]
  %1154 = load i32* %w, align 4, !dbg !5903       ; [#uses=1 type=i32] [debug line = 209:18]
  %1155 = sext i32 %1154 to i64, !dbg !5903       ; [#uses=1 type=i64] [debug line = 209:18]
  %1156 = load i32* %co2, align 4, !dbg !5903     ; [#uses=1 type=i32] [debug line = 209:18]
  %1157 = sext i32 %1156 to i64, !dbg !5903       ; [#uses=1 type=i64] [debug line = 209:18]
  %1158 = getelementptr inbounds [24 x [1 x [3 x [3 x float]]]]* @ShuffleConvs_0_ShuffleUnit0_1_conv2_weight, i32 0, i64 %1157, !dbg !5903 ; [#uses=1 type=[1 x [3 x [3 x float]]]*] [debug line = 209:18]
  %1159 = getelementptr inbounds [1 x [3 x [3 x float]]]* %1158, i32 0, i64 0, !dbg !5903 ; [#uses=1 type=[3 x [3 x float]]*] [debug line = 209:18]
  %1160 = getelementptr inbounds [3 x [3 x float]]* %1159, i32 0, i64 %1155, !dbg !5903 ; [#uses=1 type=[3 x float]*] [debug line = 209:18]
  %1161 = getelementptr inbounds [3 x float]* %1160, i32 0, i64 %1153, !dbg !5903 ; [#uses=1 type=float*] [debug line = 209:18]
  store float %1151, float* %1161, align 4, !dbg !5903 ; [debug line = 209:18]
  %1162 = load i32* %h, align 4, !dbg !5904       ; [#uses=1 type=i32] [debug line = 210:18]
  %1163 = sext i32 %1162 to i64, !dbg !5904       ; [#uses=1 type=i64] [debug line = 210:18]
  %1164 = load i32* %w, align 4, !dbg !5904       ; [#uses=1 type=i32] [debug line = 210:18]
  %1165 = sext i32 %1164 to i64, !dbg !5904       ; [#uses=1 type=i64] [debug line = 210:18]
  %1166 = load i32* %co2, align 4, !dbg !5904     ; [#uses=1 type=i32] [debug line = 210:18]
  %1167 = add nsw i32 %1166, 96, !dbg !5904       ; [#uses=1 type=i32] [debug line = 210:18]
  %1168 = sext i32 %1167 to i64, !dbg !5904       ; [#uses=1 type=i64] [debug line = 210:18]
  %1169 = load [1 x [3 x [3 x float]]]** %3, align 8, !dbg !5904 ; [#uses=1 type=[1 x [3 x [3 x float]]]*] [debug line = 210:18]
  %1170 = getelementptr inbounds [1 x [3 x [3 x float]]]* %1169, i64 %1168, !dbg !5904 ; [#uses=1 type=[1 x [3 x [3 x float]]]*] [debug line = 210:18]
  %1171 = getelementptr inbounds [1 x [3 x [3 x float]]]* %1170, i32 0, i64 0, !dbg !5904 ; [#uses=1 type=[3 x [3 x float]]*] [debug line = 210:18]
  %1172 = getelementptr inbounds [3 x [3 x float]]* %1171, i32 0, i64 %1165, !dbg !5904 ; [#uses=1 type=[3 x float]*] [debug line = 210:18]
  %1173 = getelementptr inbounds [3 x float]* %1172, i32 0, i64 %1163, !dbg !5904 ; [#uses=1 type=float*] [debug line = 210:18]
  %1174 = load float* %1173, align 4, !dbg !5904  ; [#uses=1 type=float] [debug line = 210:18]
  %1175 = load i32* %h, align 4, !dbg !5904       ; [#uses=1 type=i32] [debug line = 210:18]
  %1176 = sext i32 %1175 to i64, !dbg !5904       ; [#uses=1 type=i64] [debug line = 210:18]
  %1177 = load i32* %w, align 4, !dbg !5904       ; [#uses=1 type=i32] [debug line = 210:18]
  %1178 = sext i32 %1177 to i64, !dbg !5904       ; [#uses=1 type=i64] [debug line = 210:18]
  %1179 = load i32* %co2, align 4, !dbg !5904     ; [#uses=1 type=i32] [debug line = 210:18]
  %1180 = sext i32 %1179 to i64, !dbg !5904       ; [#uses=1 type=i64] [debug line = 210:18]
  %1181 = getelementptr inbounds [24 x [1 x [3 x [3 x float]]]]* @ShuffleConvs_0_ShuffleUnit0_2_conv2_weight, i32 0, i64 %1180, !dbg !5904 ; [#uses=1 type=[1 x [3 x [3 x float]]]*] [debug line = 210:18]
  %1182 = getelementptr inbounds [1 x [3 x [3 x float]]]* %1181, i32 0, i64 0, !dbg !5904 ; [#uses=1 type=[3 x [3 x float]]*] [debug line = 210:18]
  %1183 = getelementptr inbounds [3 x [3 x float]]* %1182, i32 0, i64 %1178, !dbg !5904 ; [#uses=1 type=[3 x float]*] [debug line = 210:18]
  %1184 = getelementptr inbounds [3 x float]* %1183, i32 0, i64 %1176, !dbg !5904 ; [#uses=1 type=float*] [debug line = 210:18]
  store float %1174, float* %1184, align 4, !dbg !5904 ; [debug line = 210:18]
  call void @llvm.dbg.declare(metadata !{i32* %i3}, metadata !5905), !dbg !5907 ; [debug line = 212:26] [debug variable = i]
  store i32 0, i32* %i3, align 4, !dbg !5908      ; [debug line = 212:31]
  br label %1185, !dbg !5908                      ; [debug line = 212:31]

; <label>:1185                                    ; preds = %1479, %1070
  %1186 = load i32* %i3, align 4, !dbg !5908      ; [#uses=1 type=i32] [debug line = 212:31]
  %1187 = icmp slt i32 %1186, 2, !dbg !5908       ; [#uses=1 type=i1] [debug line = 212:31]
  br i1 %1187, label %1188, label %1482, !dbg !5908 ; [debug line = 212:31]

; <label>:1188                                    ; preds = %1185
  %1189 = load i32* %h, align 4, !dbg !5909       ; [#uses=1 type=i32] [debug line = 213:22]
  %1190 = sext i32 %1189 to i64, !dbg !5909       ; [#uses=1 type=i64] [debug line = 213:22]
  %1191 = load i32* %w, align 4, !dbg !5909       ; [#uses=1 type=i32] [debug line = 213:22]
  %1192 = sext i32 %1191 to i64, !dbg !5909       ; [#uses=1 type=i64] [debug line = 213:22]
  %1193 = load i32* %co2, align 4, !dbg !5909     ; [#uses=1 type=i32] [debug line = 213:22]
  %1194 = add nsw i32 %1193, 120, !dbg !5909      ; [#uses=1 type=i32] [debug line = 213:22]
  %1195 = load i32* %i3, align 4, !dbg !5909      ; [#uses=1 type=i32] [debug line = 213:22]
  %1196 = mul nsw i32 %1195, 24, !dbg !5909       ; [#uses=1 type=i32] [debug line = 213:22]
  %1197 = add nsw i32 %1194, %1196, !dbg !5909    ; [#uses=1 type=i32] [debug line = 213:22]
  %1198 = sext i32 %1197 to i64, !dbg !5909       ; [#uses=1 type=i64] [debug line = 213:22]
  %1199 = load [1 x [3 x [3 x float]]]** %3, align 8, !dbg !5909 ; [#uses=1 type=[1 x [3 x [3 x float]]]*] [debug line = 213:22]
  %1200 = getelementptr inbounds [1 x [3 x [3 x float]]]* %1199, i64 %1198, !dbg !5909 ; [#uses=1 type=[1 x [3 x [3 x float]]]*] [debug line = 213:22]
  %1201 = getelementptr inbounds [1 x [3 x [3 x float]]]* %1200, i32 0, i64 0, !dbg !5909 ; [#uses=1 type=[3 x [3 x float]]*] [debug line = 213:22]
  %1202 = getelementptr inbounds [3 x [3 x float]]* %1201, i32 0, i64 %1192, !dbg !5909 ; [#uses=1 type=[3 x float]*] [debug line = 213:22]
  %1203 = getelementptr inbounds [3 x float]* %1202, i32 0, i64 %1190, !dbg !5909 ; [#uses=1 type=float*] [debug line = 213:22]
  %1204 = load float* %1203, align 4, !dbg !5909  ; [#uses=1 type=float] [debug line = 213:22]
  %1205 = load i32* %h, align 4, !dbg !5909       ; [#uses=1 type=i32] [debug line = 213:22]
  %1206 = sext i32 %1205 to i64, !dbg !5909       ; [#uses=1 type=i64] [debug line = 213:22]
  %1207 = load i32* %w, align 4, !dbg !5909       ; [#uses=1 type=i32] [debug line = 213:22]
  %1208 = sext i32 %1207 to i64, !dbg !5909       ; [#uses=1 type=i64] [debug line = 213:22]
  %1209 = load i32* %co2, align 4, !dbg !5909     ; [#uses=1 type=i32] [debug line = 213:22]
  %1210 = load i32* %i3, align 4, !dbg !5909      ; [#uses=1 type=i32] [debug line = 213:22]
  %1211 = mul nsw i32 %1210, 24, !dbg !5909       ; [#uses=1 type=i32] [debug line = 213:22]
  %1212 = add nsw i32 %1209, %1211, !dbg !5909    ; [#uses=1 type=i32] [debug line = 213:22]
  %1213 = sext i32 %1212 to i64, !dbg !5909       ; [#uses=1 type=i64] [debug line = 213:22]
  %1214 = getelementptr inbounds [48 x [1 x [3 x [3 x float]]]]* @ShuffleConvs_1_DownsampleUnit_conv2r_weight, i32 0, i64 %1213, !dbg !5909 ; [#uses=1 type=[1 x [3 x [3 x float]]]*] [debug line = 213:22]
  %1215 = getelementptr inbounds [1 x [3 x [3 x float]]]* %1214, i32 0, i64 0, !dbg !5909 ; [#uses=1 type=[3 x [3 x float]]*] [debug line = 213:22]
  %1216 = getelementptr inbounds [3 x [3 x float]]* %1215, i32 0, i64 %1208, !dbg !5909 ; [#uses=1 type=[3 x float]*] [debug line = 213:22]
  %1217 = getelementptr inbounds [3 x float]* %1216, i32 0, i64 %1206, !dbg !5909 ; [#uses=1 type=float*] [debug line = 213:22]
  store float %1204, float* %1217, align 4, !dbg !5909 ; [debug line = 213:22]
  %1218 = load i32* %h, align 4, !dbg !5911       ; [#uses=1 type=i32] [debug line = 214:22]
  %1219 = sext i32 %1218 to i64, !dbg !5911       ; [#uses=1 type=i64] [debug line = 214:22]
  %1220 = load i32* %w, align 4, !dbg !5911       ; [#uses=1 type=i32] [debug line = 214:22]
  %1221 = sext i32 %1220 to i64, !dbg !5911       ; [#uses=1 type=i64] [debug line = 214:22]
  %1222 = load i32* %co2, align 4, !dbg !5911     ; [#uses=1 type=i32] [debug line = 214:22]
  %1223 = add nsw i32 %1222, 168, !dbg !5911      ; [#uses=1 type=i32] [debug line = 214:22]
  %1224 = load i32* %i3, align 4, !dbg !5911      ; [#uses=1 type=i32] [debug line = 214:22]
  %1225 = mul nsw i32 %1224, 24, !dbg !5911       ; [#uses=1 type=i32] [debug line = 214:22]
  %1226 = add nsw i32 %1223, %1225, !dbg !5911    ; [#uses=1 type=i32] [debug line = 214:22]
  %1227 = sext i32 %1226 to i64, !dbg !5911       ; [#uses=1 type=i64] [debug line = 214:22]
  %1228 = load [1 x [3 x [3 x float]]]** %3, align 8, !dbg !5911 ; [#uses=1 type=[1 x [3 x [3 x float]]]*] [debug line = 214:22]
  %1229 = getelementptr inbounds [1 x [3 x [3 x float]]]* %1228, i64 %1227, !dbg !5911 ; [#uses=1 type=[1 x [3 x [3 x float]]]*] [debug line = 214:22]
  %1230 = getelementptr inbounds [1 x [3 x [3 x float]]]* %1229, i32 0, i64 0, !dbg !5911 ; [#uses=1 type=[3 x [3 x float]]*] [debug line = 214:22]
  %1231 = getelementptr inbounds [3 x [3 x float]]* %1230, i32 0, i64 %1221, !dbg !5911 ; [#uses=1 type=[3 x float]*] [debug line = 214:22]
  %1232 = getelementptr inbounds [3 x float]* %1231, i32 0, i64 %1219, !dbg !5911 ; [#uses=1 type=float*] [debug line = 214:22]
  %1233 = load float* %1232, align 4, !dbg !5911  ; [#uses=1 type=float] [debug line = 214:22]
  %1234 = load i32* %h, align 4, !dbg !5911       ; [#uses=1 type=i32] [debug line = 214:22]
  %1235 = sext i32 %1234 to i64, !dbg !5911       ; [#uses=1 type=i64] [debug line = 214:22]
  %1236 = load i32* %w, align 4, !dbg !5911       ; [#uses=1 type=i32] [debug line = 214:22]
  %1237 = sext i32 %1236 to i64, !dbg !5911       ; [#uses=1 type=i64] [debug line = 214:22]
  %1238 = load i32* %co2, align 4, !dbg !5911     ; [#uses=1 type=i32] [debug line = 214:22]
  %1239 = load i32* %i3, align 4, !dbg !5911      ; [#uses=1 type=i32] [debug line = 214:22]
  %1240 = mul nsw i32 %1239, 24, !dbg !5911       ; [#uses=1 type=i32] [debug line = 214:22]
  %1241 = add nsw i32 %1238, %1240, !dbg !5911    ; [#uses=1 type=i32] [debug line = 214:22]
  %1242 = sext i32 %1241 to i64, !dbg !5911       ; [#uses=1 type=i64] [debug line = 214:22]
  %1243 = getelementptr inbounds [48 x [1 x [3 x [3 x float]]]]* @ShuffleConvs_1_DownsampleUnit_conv1l_weight, i32 0, i64 %1242, !dbg !5911 ; [#uses=1 type=[1 x [3 x [3 x float]]]*] [debug line = 214:22]
  %1244 = getelementptr inbounds [1 x [3 x [3 x float]]]* %1243, i32 0, i64 0, !dbg !5911 ; [#uses=1 type=[3 x [3 x float]]*] [debug line = 214:22]
  %1245 = getelementptr inbounds [3 x [3 x float]]* %1244, i32 0, i64 %1237, !dbg !5911 ; [#uses=1 type=[3 x float]*] [debug line = 214:22]
  %1246 = getelementptr inbounds [3 x float]* %1245, i32 0, i64 %1235, !dbg !5911 ; [#uses=1 type=float*] [debug line = 214:22]
  store float %1233, float* %1246, align 4, !dbg !5911 ; [debug line = 214:22]
  %1247 = load i32* %h, align 4, !dbg !5912       ; [#uses=1 type=i32] [debug line = 215:22]
  %1248 = sext i32 %1247 to i64, !dbg !5912       ; [#uses=1 type=i64] [debug line = 215:22]
  %1249 = load i32* %w, align 4, !dbg !5912       ; [#uses=1 type=i32] [debug line = 215:22]
  %1250 = sext i32 %1249 to i64, !dbg !5912       ; [#uses=1 type=i64] [debug line = 215:22]
  %1251 = load i32* %co2, align 4, !dbg !5912     ; [#uses=1 type=i32] [debug line = 215:22]
  %1252 = add nsw i32 %1251, 216, !dbg !5912      ; [#uses=1 type=i32] [debug line = 215:22]
  %1253 = load i32* %i3, align 4, !dbg !5912      ; [#uses=1 type=i32] [debug line = 215:22]
  %1254 = mul nsw i32 %1253, 24, !dbg !5912       ; [#uses=1 type=i32] [debug line = 215:22]
  %1255 = add nsw i32 %1252, %1254, !dbg !5912    ; [#uses=1 type=i32] [debug line = 215:22]
  %1256 = sext i32 %1255 to i64, !dbg !5912       ; [#uses=1 type=i64] [debug line = 215:22]
  %1257 = load [1 x [3 x [3 x float]]]** %3, align 8, !dbg !5912 ; [#uses=1 type=[1 x [3 x [3 x float]]]*] [debug line = 215:22]
  %1258 = getelementptr inbounds [1 x [3 x [3 x float]]]* %1257, i64 %1256, !dbg !5912 ; [#uses=1 type=[1 x [3 x [3 x float]]]*] [debug line = 215:22]
  %1259 = getelementptr inbounds [1 x [3 x [3 x float]]]* %1258, i32 0, i64 0, !dbg !5912 ; [#uses=1 type=[3 x [3 x float]]*] [debug line = 215:22]
  %1260 = getelementptr inbounds [3 x [3 x float]]* %1259, i32 0, i64 %1250, !dbg !5912 ; [#uses=1 type=[3 x float]*] [debug line = 215:22]
  %1261 = getelementptr inbounds [3 x float]* %1260, i32 0, i64 %1248, !dbg !5912 ; [#uses=1 type=float*] [debug line = 215:22]
  %1262 = load float* %1261, align 4, !dbg !5912  ; [#uses=1 type=float] [debug line = 215:22]
  %1263 = load i32* %h, align 4, !dbg !5912       ; [#uses=1 type=i32] [debug line = 215:22]
  %1264 = sext i32 %1263 to i64, !dbg !5912       ; [#uses=1 type=i64] [debug line = 215:22]
  %1265 = load i32* %w, align 4, !dbg !5912       ; [#uses=1 type=i32] [debug line = 215:22]
  %1266 = sext i32 %1265 to i64, !dbg !5912       ; [#uses=1 type=i64] [debug line = 215:22]
  %1267 = load i32* %co2, align 4, !dbg !5912     ; [#uses=1 type=i32] [debug line = 215:22]
  %1268 = load i32* %i3, align 4, !dbg !5912      ; [#uses=1 type=i32] [debug line = 215:22]
  %1269 = mul nsw i32 %1268, 24, !dbg !5912       ; [#uses=1 type=i32] [debug line = 215:22]
  %1270 = add nsw i32 %1267, %1269, !dbg !5912    ; [#uses=1 type=i32] [debug line = 215:22]
  %1271 = sext i32 %1270 to i64, !dbg !5912       ; [#uses=1 type=i64] [debug line = 215:22]
  %1272 = getelementptr inbounds [48 x [1 x [3 x [3 x float]]]]* @ShuffleConvs_1_ShuffleUnit1_0_conv2_weight, i32 0, i64 %1271, !dbg !5912 ; [#uses=1 type=[1 x [3 x [3 x float]]]*] [debug line = 215:22]
  %1273 = getelementptr inbounds [1 x [3 x [3 x float]]]* %1272, i32 0, i64 0, !dbg !5912 ; [#uses=1 type=[3 x [3 x float]]*] [debug line = 215:22]
  %1274 = getelementptr inbounds [3 x [3 x float]]* %1273, i32 0, i64 %1266, !dbg !5912 ; [#uses=1 type=[3 x float]*] [debug line = 215:22]
  %1275 = getelementptr inbounds [3 x float]* %1274, i32 0, i64 %1264, !dbg !5912 ; [#uses=1 type=float*] [debug line = 215:22]
  store float %1262, float* %1275, align 4, !dbg !5912 ; [debug line = 215:22]
  %1276 = load i32* %h, align 4, !dbg !5913       ; [#uses=1 type=i32] [debug line = 216:22]
  %1277 = sext i32 %1276 to i64, !dbg !5913       ; [#uses=1 type=i64] [debug line = 216:22]
  %1278 = load i32* %w, align 4, !dbg !5913       ; [#uses=1 type=i32] [debug line = 216:22]
  %1279 = sext i32 %1278 to i64, !dbg !5913       ; [#uses=1 type=i64] [debug line = 216:22]
  %1280 = load i32* %co2, align 4, !dbg !5913     ; [#uses=1 type=i32] [debug line = 216:22]
  %1281 = add nsw i32 %1280, 264, !dbg !5913      ; [#uses=1 type=i32] [debug line = 216:22]
  %1282 = load i32* %i3, align 4, !dbg !5913      ; [#uses=1 type=i32] [debug line = 216:22]
  %1283 = mul nsw i32 %1282, 24, !dbg !5913       ; [#uses=1 type=i32] [debug line = 216:22]
  %1284 = add nsw i32 %1281, %1283, !dbg !5913    ; [#uses=1 type=i32] [debug line = 216:22]
  %1285 = sext i32 %1284 to i64, !dbg !5913       ; [#uses=1 type=i64] [debug line = 216:22]
  %1286 = load [1 x [3 x [3 x float]]]** %3, align 8, !dbg !5913 ; [#uses=1 type=[1 x [3 x [3 x float]]]*] [debug line = 216:22]
  %1287 = getelementptr inbounds [1 x [3 x [3 x float]]]* %1286, i64 %1285, !dbg !5913 ; [#uses=1 type=[1 x [3 x [3 x float]]]*] [debug line = 216:22]
  %1288 = getelementptr inbounds [1 x [3 x [3 x float]]]* %1287, i32 0, i64 0, !dbg !5913 ; [#uses=1 type=[3 x [3 x float]]*] [debug line = 216:22]
  %1289 = getelementptr inbounds [3 x [3 x float]]* %1288, i32 0, i64 %1279, !dbg !5913 ; [#uses=1 type=[3 x float]*] [debug line = 216:22]
  %1290 = getelementptr inbounds [3 x float]* %1289, i32 0, i64 %1277, !dbg !5913 ; [#uses=1 type=float*] [debug line = 216:22]
  %1291 = load float* %1290, align 4, !dbg !5913  ; [#uses=1 type=float] [debug line = 216:22]
  %1292 = load i32* %h, align 4, !dbg !5913       ; [#uses=1 type=i32] [debug line = 216:22]
  %1293 = sext i32 %1292 to i64, !dbg !5913       ; [#uses=1 type=i64] [debug line = 216:22]
  %1294 = load i32* %w, align 4, !dbg !5913       ; [#uses=1 type=i32] [debug line = 216:22]
  %1295 = sext i32 %1294 to i64, !dbg !5913       ; [#uses=1 type=i64] [debug line = 216:22]
  %1296 = load i32* %co2, align 4, !dbg !5913     ; [#uses=1 type=i32] [debug line = 216:22]
  %1297 = load i32* %i3, align 4, !dbg !5913      ; [#uses=1 type=i32] [debug line = 216:22]
  %1298 = mul nsw i32 %1297, 24, !dbg !5913       ; [#uses=1 type=i32] [debug line = 216:22]
  %1299 = add nsw i32 %1296, %1298, !dbg !5913    ; [#uses=1 type=i32] [debug line = 216:22]
  %1300 = sext i32 %1299 to i64, !dbg !5913       ; [#uses=1 type=i64] [debug line = 216:22]
  %1301 = getelementptr inbounds [48 x [1 x [3 x [3 x float]]]]* @ShuffleConvs_1_ShuffleUnit1_1_conv2_weight, i32 0, i64 %1300, !dbg !5913 ; [#uses=1 type=[1 x [3 x [3 x float]]]*] [debug line = 216:22]
  %1302 = getelementptr inbounds [1 x [3 x [3 x float]]]* %1301, i32 0, i64 0, !dbg !5913 ; [#uses=1 type=[3 x [3 x float]]*] [debug line = 216:22]
  %1303 = getelementptr inbounds [3 x [3 x float]]* %1302, i32 0, i64 %1295, !dbg !5913 ; [#uses=1 type=[3 x float]*] [debug line = 216:22]
  %1304 = getelementptr inbounds [3 x float]* %1303, i32 0, i64 %1293, !dbg !5913 ; [#uses=1 type=float*] [debug line = 216:22]
  store float %1291, float* %1304, align 4, !dbg !5913 ; [debug line = 216:22]
  %1305 = load i32* %h, align 4, !dbg !5914       ; [#uses=1 type=i32] [debug line = 217:22]
  %1306 = sext i32 %1305 to i64, !dbg !5914       ; [#uses=1 type=i64] [debug line = 217:22]
  %1307 = load i32* %w, align 4, !dbg !5914       ; [#uses=1 type=i32] [debug line = 217:22]
  %1308 = sext i32 %1307 to i64, !dbg !5914       ; [#uses=1 type=i64] [debug line = 217:22]
  %1309 = load i32* %co2, align 4, !dbg !5914     ; [#uses=1 type=i32] [debug line = 217:22]
  %1310 = add nsw i32 %1309, 312, !dbg !5914      ; [#uses=1 type=i32] [debug line = 217:22]
  %1311 = load i32* %i3, align 4, !dbg !5914      ; [#uses=1 type=i32] [debug line = 217:22]
  %1312 = mul nsw i32 %1311, 24, !dbg !5914       ; [#uses=1 type=i32] [debug line = 217:22]
  %1313 = add nsw i32 %1310, %1312, !dbg !5914    ; [#uses=1 type=i32] [debug line = 217:22]
  %1314 = sext i32 %1313 to i64, !dbg !5914       ; [#uses=1 type=i64] [debug line = 217:22]
  %1315 = load [1 x [3 x [3 x float]]]** %3, align 8, !dbg !5914 ; [#uses=1 type=[1 x [3 x [3 x float]]]*] [debug line = 217:22]
  %1316 = getelementptr inbounds [1 x [3 x [3 x float]]]* %1315, i64 %1314, !dbg !5914 ; [#uses=1 type=[1 x [3 x [3 x float]]]*] [debug line = 217:22]
  %1317 = getelementptr inbounds [1 x [3 x [3 x float]]]* %1316, i32 0, i64 0, !dbg !5914 ; [#uses=1 type=[3 x [3 x float]]*] [debug line = 217:22]
  %1318 = getelementptr inbounds [3 x [3 x float]]* %1317, i32 0, i64 %1308, !dbg !5914 ; [#uses=1 type=[3 x float]*] [debug line = 217:22]
  %1319 = getelementptr inbounds [3 x float]* %1318, i32 0, i64 %1306, !dbg !5914 ; [#uses=1 type=float*] [debug line = 217:22]
  %1320 = load float* %1319, align 4, !dbg !5914  ; [#uses=1 type=float] [debug line = 217:22]
  %1321 = load i32* %h, align 4, !dbg !5914       ; [#uses=1 type=i32] [debug line = 217:22]
  %1322 = sext i32 %1321 to i64, !dbg !5914       ; [#uses=1 type=i64] [debug line = 217:22]
  %1323 = load i32* %w, align 4, !dbg !5914       ; [#uses=1 type=i32] [debug line = 217:22]
  %1324 = sext i32 %1323 to i64, !dbg !5914       ; [#uses=1 type=i64] [debug line = 217:22]
  %1325 = load i32* %co2, align 4, !dbg !5914     ; [#uses=1 type=i32] [debug line = 217:22]
  %1326 = load i32* %i3, align 4, !dbg !5914      ; [#uses=1 type=i32] [debug line = 217:22]
  %1327 = mul nsw i32 %1326, 24, !dbg !5914       ; [#uses=1 type=i32] [debug line = 217:22]
  %1328 = add nsw i32 %1325, %1327, !dbg !5914    ; [#uses=1 type=i32] [debug line = 217:22]
  %1329 = sext i32 %1328 to i64, !dbg !5914       ; [#uses=1 type=i64] [debug line = 217:22]
  %1330 = getelementptr inbounds [48 x [1 x [3 x [3 x float]]]]* @ShuffleConvs_1_ShuffleUnit1_2_conv2_weight, i32 0, i64 %1329, !dbg !5914 ; [#uses=1 type=[1 x [3 x [3 x float]]]*] [debug line = 217:22]
  %1331 = getelementptr inbounds [1 x [3 x [3 x float]]]* %1330, i32 0, i64 0, !dbg !5914 ; [#uses=1 type=[3 x [3 x float]]*] [debug line = 217:22]
  %1332 = getelementptr inbounds [3 x [3 x float]]* %1331, i32 0, i64 %1324, !dbg !5914 ; [#uses=1 type=[3 x float]*] [debug line = 217:22]
  %1333 = getelementptr inbounds [3 x float]* %1332, i32 0, i64 %1322, !dbg !5914 ; [#uses=1 type=float*] [debug line = 217:22]
  store float %1320, float* %1333, align 4, !dbg !5914 ; [debug line = 217:22]
  %1334 = load i32* %h, align 4, !dbg !5915       ; [#uses=1 type=i32] [debug line = 218:22]
  %1335 = sext i32 %1334 to i64, !dbg !5915       ; [#uses=1 type=i64] [debug line = 218:22]
  %1336 = load i32* %w, align 4, !dbg !5915       ; [#uses=1 type=i32] [debug line = 218:22]
  %1337 = sext i32 %1336 to i64, !dbg !5915       ; [#uses=1 type=i64] [debug line = 218:22]
  %1338 = load i32* %co2, align 4, !dbg !5915     ; [#uses=1 type=i32] [debug line = 218:22]
  %1339 = add nsw i32 %1338, 360, !dbg !5915      ; [#uses=1 type=i32] [debug line = 218:22]
  %1340 = load i32* %i3, align 4, !dbg !5915      ; [#uses=1 type=i32] [debug line = 218:22]
  %1341 = mul nsw i32 %1340, 24, !dbg !5915       ; [#uses=1 type=i32] [debug line = 218:22]
  %1342 = add nsw i32 %1339, %1341, !dbg !5915    ; [#uses=1 type=i32] [debug line = 218:22]
  %1343 = sext i32 %1342 to i64, !dbg !5915       ; [#uses=1 type=i64] [debug line = 218:22]
  %1344 = load [1 x [3 x [3 x float]]]** %3, align 8, !dbg !5915 ; [#uses=1 type=[1 x [3 x [3 x float]]]*] [debug line = 218:22]
  %1345 = getelementptr inbounds [1 x [3 x [3 x float]]]* %1344, i64 %1343, !dbg !5915 ; [#uses=1 type=[1 x [3 x [3 x float]]]*] [debug line = 218:22]
  %1346 = getelementptr inbounds [1 x [3 x [3 x float]]]* %1345, i32 0, i64 0, !dbg !5915 ; [#uses=1 type=[3 x [3 x float]]*] [debug line = 218:22]
  %1347 = getelementptr inbounds [3 x [3 x float]]* %1346, i32 0, i64 %1337, !dbg !5915 ; [#uses=1 type=[3 x float]*] [debug line = 218:22]
  %1348 = getelementptr inbounds [3 x float]* %1347, i32 0, i64 %1335, !dbg !5915 ; [#uses=1 type=float*] [debug line = 218:22]
  %1349 = load float* %1348, align 4, !dbg !5915  ; [#uses=1 type=float] [debug line = 218:22]
  %1350 = load i32* %h, align 4, !dbg !5915       ; [#uses=1 type=i32] [debug line = 218:22]
  %1351 = sext i32 %1350 to i64, !dbg !5915       ; [#uses=1 type=i64] [debug line = 218:22]
  %1352 = load i32* %w, align 4, !dbg !5915       ; [#uses=1 type=i32] [debug line = 218:22]
  %1353 = sext i32 %1352 to i64, !dbg !5915       ; [#uses=1 type=i64] [debug line = 218:22]
  %1354 = load i32* %co2, align 4, !dbg !5915     ; [#uses=1 type=i32] [debug line = 218:22]
  %1355 = load i32* %i3, align 4, !dbg !5915      ; [#uses=1 type=i32] [debug line = 218:22]
  %1356 = mul nsw i32 %1355, 24, !dbg !5915       ; [#uses=1 type=i32] [debug line = 218:22]
  %1357 = add nsw i32 %1354, %1356, !dbg !5915    ; [#uses=1 type=i32] [debug line = 218:22]
  %1358 = sext i32 %1357 to i64, !dbg !5915       ; [#uses=1 type=i64] [debug line = 218:22]
  %1359 = getelementptr inbounds [48 x [1 x [3 x [3 x float]]]]* @ShuffleConvs_1_ShuffleUnit1_3_conv2_weight, i32 0, i64 %1358, !dbg !5915 ; [#uses=1 type=[1 x [3 x [3 x float]]]*] [debug line = 218:22]
  %1360 = getelementptr inbounds [1 x [3 x [3 x float]]]* %1359, i32 0, i64 0, !dbg !5915 ; [#uses=1 type=[3 x [3 x float]]*] [debug line = 218:22]
  %1361 = getelementptr inbounds [3 x [3 x float]]* %1360, i32 0, i64 %1353, !dbg !5915 ; [#uses=1 type=[3 x float]*] [debug line = 218:22]
  %1362 = getelementptr inbounds [3 x float]* %1361, i32 0, i64 %1351, !dbg !5915 ; [#uses=1 type=float*] [debug line = 218:22]
  store float %1349, float* %1362, align 4, !dbg !5915 ; [debug line = 218:22]
  %1363 = load i32* %h, align 4, !dbg !5916       ; [#uses=1 type=i32] [debug line = 219:22]
  %1364 = sext i32 %1363 to i64, !dbg !5916       ; [#uses=1 type=i64] [debug line = 219:22]
  %1365 = load i32* %w, align 4, !dbg !5916       ; [#uses=1 type=i32] [debug line = 219:22]
  %1366 = sext i32 %1365 to i64, !dbg !5916       ; [#uses=1 type=i64] [debug line = 219:22]
  %1367 = load i32* %co2, align 4, !dbg !5916     ; [#uses=1 type=i32] [debug line = 219:22]
  %1368 = add nsw i32 %1367, 408, !dbg !5916      ; [#uses=1 type=i32] [debug line = 219:22]
  %1369 = load i32* %i3, align 4, !dbg !5916      ; [#uses=1 type=i32] [debug line = 219:22]
  %1370 = mul nsw i32 %1369, 24, !dbg !5916       ; [#uses=1 type=i32] [debug line = 219:22]
  %1371 = add nsw i32 %1368, %1370, !dbg !5916    ; [#uses=1 type=i32] [debug line = 219:22]
  %1372 = sext i32 %1371 to i64, !dbg !5916       ; [#uses=1 type=i64] [debug line = 219:22]
  %1373 = load [1 x [3 x [3 x float]]]** %3, align 8, !dbg !5916 ; [#uses=1 type=[1 x [3 x [3 x float]]]*] [debug line = 219:22]
  %1374 = getelementptr inbounds [1 x [3 x [3 x float]]]* %1373, i64 %1372, !dbg !5916 ; [#uses=1 type=[1 x [3 x [3 x float]]]*] [debug line = 219:22]
  %1375 = getelementptr inbounds [1 x [3 x [3 x float]]]* %1374, i32 0, i64 0, !dbg !5916 ; [#uses=1 type=[3 x [3 x float]]*] [debug line = 219:22]
  %1376 = getelementptr inbounds [3 x [3 x float]]* %1375, i32 0, i64 %1366, !dbg !5916 ; [#uses=1 type=[3 x float]*] [debug line = 219:22]
  %1377 = getelementptr inbounds [3 x float]* %1376, i32 0, i64 %1364, !dbg !5916 ; [#uses=1 type=float*] [debug line = 219:22]
  %1378 = load float* %1377, align 4, !dbg !5916  ; [#uses=1 type=float] [debug line = 219:22]
  %1379 = load i32* %h, align 4, !dbg !5916       ; [#uses=1 type=i32] [debug line = 219:22]
  %1380 = sext i32 %1379 to i64, !dbg !5916       ; [#uses=1 type=i64] [debug line = 219:22]
  %1381 = load i32* %w, align 4, !dbg !5916       ; [#uses=1 type=i32] [debug line = 219:22]
  %1382 = sext i32 %1381 to i64, !dbg !5916       ; [#uses=1 type=i64] [debug line = 219:22]
  %1383 = load i32* %co2, align 4, !dbg !5916     ; [#uses=1 type=i32] [debug line = 219:22]
  %1384 = load i32* %i3, align 4, !dbg !5916      ; [#uses=1 type=i32] [debug line = 219:22]
  %1385 = mul nsw i32 %1384, 24, !dbg !5916       ; [#uses=1 type=i32] [debug line = 219:22]
  %1386 = add nsw i32 %1383, %1385, !dbg !5916    ; [#uses=1 type=i32] [debug line = 219:22]
  %1387 = sext i32 %1386 to i64, !dbg !5916       ; [#uses=1 type=i64] [debug line = 219:22]
  %1388 = getelementptr inbounds [48 x [1 x [3 x [3 x float]]]]* @ShuffleConvs_1_ShuffleUnit1_4_conv2_weight, i32 0, i64 %1387, !dbg !5916 ; [#uses=1 type=[1 x [3 x [3 x float]]]*] [debug line = 219:22]
  %1389 = getelementptr inbounds [1 x [3 x [3 x float]]]* %1388, i32 0, i64 0, !dbg !5916 ; [#uses=1 type=[3 x [3 x float]]*] [debug line = 219:22]
  %1390 = getelementptr inbounds [3 x [3 x float]]* %1389, i32 0, i64 %1382, !dbg !5916 ; [#uses=1 type=[3 x float]*] [debug line = 219:22]
  %1391 = getelementptr inbounds [3 x float]* %1390, i32 0, i64 %1380, !dbg !5916 ; [#uses=1 type=float*] [debug line = 219:22]
  store float %1378, float* %1391, align 4, !dbg !5916 ; [debug line = 219:22]
  %1392 = load i32* %h, align 4, !dbg !5917       ; [#uses=1 type=i32] [debug line = 220:22]
  %1393 = sext i32 %1392 to i64, !dbg !5917       ; [#uses=1 type=i64] [debug line = 220:22]
  %1394 = load i32* %w, align 4, !dbg !5917       ; [#uses=1 type=i32] [debug line = 220:22]
  %1395 = sext i32 %1394 to i64, !dbg !5917       ; [#uses=1 type=i64] [debug line = 220:22]
  %1396 = load i32* %co2, align 4, !dbg !5917     ; [#uses=1 type=i32] [debug line = 220:22]
  %1397 = add nsw i32 %1396, 456, !dbg !5917      ; [#uses=1 type=i32] [debug line = 220:22]
  %1398 = load i32* %i3, align 4, !dbg !5917      ; [#uses=1 type=i32] [debug line = 220:22]
  %1399 = mul nsw i32 %1398, 24, !dbg !5917       ; [#uses=1 type=i32] [debug line = 220:22]
  %1400 = add nsw i32 %1397, %1399, !dbg !5917    ; [#uses=1 type=i32] [debug line = 220:22]
  %1401 = sext i32 %1400 to i64, !dbg !5917       ; [#uses=1 type=i64] [debug line = 220:22]
  %1402 = load [1 x [3 x [3 x float]]]** %3, align 8, !dbg !5917 ; [#uses=1 type=[1 x [3 x [3 x float]]]*] [debug line = 220:22]
  %1403 = getelementptr inbounds [1 x [3 x [3 x float]]]* %1402, i64 %1401, !dbg !5917 ; [#uses=1 type=[1 x [3 x [3 x float]]]*] [debug line = 220:22]
  %1404 = getelementptr inbounds [1 x [3 x [3 x float]]]* %1403, i32 0, i64 0, !dbg !5917 ; [#uses=1 type=[3 x [3 x float]]*] [debug line = 220:22]
  %1405 = getelementptr inbounds [3 x [3 x float]]* %1404, i32 0, i64 %1395, !dbg !5917 ; [#uses=1 type=[3 x float]*] [debug line = 220:22]
  %1406 = getelementptr inbounds [3 x float]* %1405, i32 0, i64 %1393, !dbg !5917 ; [#uses=1 type=float*] [debug line = 220:22]
  %1407 = load float* %1406, align 4, !dbg !5917  ; [#uses=1 type=float] [debug line = 220:22]
  %1408 = load i32* %h, align 4, !dbg !5917       ; [#uses=1 type=i32] [debug line = 220:22]
  %1409 = sext i32 %1408 to i64, !dbg !5917       ; [#uses=1 type=i64] [debug line = 220:22]
  %1410 = load i32* %w, align 4, !dbg !5917       ; [#uses=1 type=i32] [debug line = 220:22]
  %1411 = sext i32 %1410 to i64, !dbg !5917       ; [#uses=1 type=i64] [debug line = 220:22]
  %1412 = load i32* %co2, align 4, !dbg !5917     ; [#uses=1 type=i32] [debug line = 220:22]
  %1413 = load i32* %i3, align 4, !dbg !5917      ; [#uses=1 type=i32] [debug line = 220:22]
  %1414 = mul nsw i32 %1413, 24, !dbg !5917       ; [#uses=1 type=i32] [debug line = 220:22]
  %1415 = add nsw i32 %1412, %1414, !dbg !5917    ; [#uses=1 type=i32] [debug line = 220:22]
  %1416 = sext i32 %1415 to i64, !dbg !5917       ; [#uses=1 type=i64] [debug line = 220:22]
  %1417 = getelementptr inbounds [48 x [1 x [3 x [3 x float]]]]* @ShuffleConvs_1_ShuffleUnit1_5_conv2_weight, i32 0, i64 %1416, !dbg !5917 ; [#uses=1 type=[1 x [3 x [3 x float]]]*] [debug line = 220:22]
  %1418 = getelementptr inbounds [1 x [3 x [3 x float]]]* %1417, i32 0, i64 0, !dbg !5917 ; [#uses=1 type=[3 x [3 x float]]*] [debug line = 220:22]
  %1419 = getelementptr inbounds [3 x [3 x float]]* %1418, i32 0, i64 %1411, !dbg !5917 ; [#uses=1 type=[3 x float]*] [debug line = 220:22]
  %1420 = getelementptr inbounds [3 x float]* %1419, i32 0, i64 %1409, !dbg !5917 ; [#uses=1 type=float*] [debug line = 220:22]
  store float %1407, float* %1420, align 4, !dbg !5917 ; [debug line = 220:22]
  %1421 = load i32* %h, align 4, !dbg !5918       ; [#uses=1 type=i32] [debug line = 221:22]
  %1422 = sext i32 %1421 to i64, !dbg !5918       ; [#uses=1 type=i64] [debug line = 221:22]
  %1423 = load i32* %w, align 4, !dbg !5918       ; [#uses=1 type=i32] [debug line = 221:22]
  %1424 = sext i32 %1423 to i64, !dbg !5918       ; [#uses=1 type=i64] [debug line = 221:22]
  %1425 = load i32* %co2, align 4, !dbg !5918     ; [#uses=1 type=i32] [debug line = 221:22]
  %1426 = add nsw i32 %1425, 504, !dbg !5918      ; [#uses=1 type=i32] [debug line = 221:22]
  %1427 = load i32* %i3, align 4, !dbg !5918      ; [#uses=1 type=i32] [debug line = 221:22]
  %1428 = mul nsw i32 %1427, 24, !dbg !5918       ; [#uses=1 type=i32] [debug line = 221:22]
  %1429 = add nsw i32 %1426, %1428, !dbg !5918    ; [#uses=1 type=i32] [debug line = 221:22]
  %1430 = sext i32 %1429 to i64, !dbg !5918       ; [#uses=1 type=i64] [debug line = 221:22]
  %1431 = load [1 x [3 x [3 x float]]]** %3, align 8, !dbg !5918 ; [#uses=1 type=[1 x [3 x [3 x float]]]*] [debug line = 221:22]
  %1432 = getelementptr inbounds [1 x [3 x [3 x float]]]* %1431, i64 %1430, !dbg !5918 ; [#uses=1 type=[1 x [3 x [3 x float]]]*] [debug line = 221:22]
  %1433 = getelementptr inbounds [1 x [3 x [3 x float]]]* %1432, i32 0, i64 0, !dbg !5918 ; [#uses=1 type=[3 x [3 x float]]*] [debug line = 221:22]
  %1434 = getelementptr inbounds [3 x [3 x float]]* %1433, i32 0, i64 %1424, !dbg !5918 ; [#uses=1 type=[3 x float]*] [debug line = 221:22]
  %1435 = getelementptr inbounds [3 x float]* %1434, i32 0, i64 %1422, !dbg !5918 ; [#uses=1 type=float*] [debug line = 221:22]
  %1436 = load float* %1435, align 4, !dbg !5918  ; [#uses=1 type=float] [debug line = 221:22]
  %1437 = load i32* %h, align 4, !dbg !5918       ; [#uses=1 type=i32] [debug line = 221:22]
  %1438 = sext i32 %1437 to i64, !dbg !5918       ; [#uses=1 type=i64] [debug line = 221:22]
  %1439 = load i32* %w, align 4, !dbg !5918       ; [#uses=1 type=i32] [debug line = 221:22]
  %1440 = sext i32 %1439 to i64, !dbg !5918       ; [#uses=1 type=i64] [debug line = 221:22]
  %1441 = load i32* %co2, align 4, !dbg !5918     ; [#uses=1 type=i32] [debug line = 221:22]
  %1442 = load i32* %i3, align 4, !dbg !5918      ; [#uses=1 type=i32] [debug line = 221:22]
  %1443 = mul nsw i32 %1442, 24, !dbg !5918       ; [#uses=1 type=i32] [debug line = 221:22]
  %1444 = add nsw i32 %1441, %1443, !dbg !5918    ; [#uses=1 type=i32] [debug line = 221:22]
  %1445 = sext i32 %1444 to i64, !dbg !5918       ; [#uses=1 type=i64] [debug line = 221:22]
  %1446 = getelementptr inbounds [48 x [1 x [3 x [3 x float]]]]* @ShuffleConvs_1_ShuffleUnit1_6_conv2_weight, i32 0, i64 %1445, !dbg !5918 ; [#uses=1 type=[1 x [3 x [3 x float]]]*] [debug line = 221:22]
  %1447 = getelementptr inbounds [1 x [3 x [3 x float]]]* %1446, i32 0, i64 0, !dbg !5918 ; [#uses=1 type=[3 x [3 x float]]*] [debug line = 221:22]
  %1448 = getelementptr inbounds [3 x [3 x float]]* %1447, i32 0, i64 %1440, !dbg !5918 ; [#uses=1 type=[3 x float]*] [debug line = 221:22]
  %1449 = getelementptr inbounds [3 x float]* %1448, i32 0, i64 %1438, !dbg !5918 ; [#uses=1 type=float*] [debug line = 221:22]
  store float %1436, float* %1449, align 4, !dbg !5918 ; [debug line = 221:22]
  %1450 = load i32* %h, align 4, !dbg !5919       ; [#uses=1 type=i32] [debug line = 222:22]
  %1451 = sext i32 %1450 to i64, !dbg !5919       ; [#uses=1 type=i64] [debug line = 222:22]
  %1452 = load i32* %w, align 4, !dbg !5919       ; [#uses=1 type=i32] [debug line = 222:22]
  %1453 = sext i32 %1452 to i64, !dbg !5919       ; [#uses=1 type=i64] [debug line = 222:22]
  %1454 = load i32* %co2, align 4, !dbg !5919     ; [#uses=1 type=i32] [debug line = 222:22]
  %1455 = add nsw i32 %1454, 552, !dbg !5919      ; [#uses=1 type=i32] [debug line = 222:22]
  %1456 = load i32* %i3, align 4, !dbg !5919      ; [#uses=1 type=i32] [debug line = 222:22]
  %1457 = mul nsw i32 %1456, 24, !dbg !5919       ; [#uses=1 type=i32] [debug line = 222:22]
  %1458 = add nsw i32 %1455, %1457, !dbg !5919    ; [#uses=1 type=i32] [debug line = 222:22]
  %1459 = sext i32 %1458 to i64, !dbg !5919       ; [#uses=1 type=i64] [debug line = 222:22]
  %1460 = load [1 x [3 x [3 x float]]]** %3, align 8, !dbg !5919 ; [#uses=1 type=[1 x [3 x [3 x float]]]*] [debug line = 222:22]
  %1461 = getelementptr inbounds [1 x [3 x [3 x float]]]* %1460, i64 %1459, !dbg !5919 ; [#uses=1 type=[1 x [3 x [3 x float]]]*] [debug line = 222:22]
  %1462 = getelementptr inbounds [1 x [3 x [3 x float]]]* %1461, i32 0, i64 0, !dbg !5919 ; [#uses=1 type=[3 x [3 x float]]*] [debug line = 222:22]
  %1463 = getelementptr inbounds [3 x [3 x float]]* %1462, i32 0, i64 %1453, !dbg !5919 ; [#uses=1 type=[3 x float]*] [debug line = 222:22]
  %1464 = getelementptr inbounds [3 x float]* %1463, i32 0, i64 %1451, !dbg !5919 ; [#uses=1 type=float*] [debug line = 222:22]
  %1465 = load float* %1464, align 4, !dbg !5919  ; [#uses=1 type=float] [debug line = 222:22]
  %1466 = load i32* %h, align 4, !dbg !5919       ; [#uses=1 type=i32] [debug line = 222:22]
  %1467 = sext i32 %1466 to i64, !dbg !5919       ; [#uses=1 type=i64] [debug line = 222:22]
  %1468 = load i32* %w, align 4, !dbg !5919       ; [#uses=1 type=i32] [debug line = 222:22]
  %1469 = sext i32 %1468 to i64, !dbg !5919       ; [#uses=1 type=i64] [debug line = 222:22]
  %1470 = load i32* %co2, align 4, !dbg !5919     ; [#uses=1 type=i32] [debug line = 222:22]
  %1471 = load i32* %i3, align 4, !dbg !5919      ; [#uses=1 type=i32] [debug line = 222:22]
  %1472 = mul nsw i32 %1471, 24, !dbg !5919       ; [#uses=1 type=i32] [debug line = 222:22]
  %1473 = add nsw i32 %1470, %1472, !dbg !5919    ; [#uses=1 type=i32] [debug line = 222:22]
  %1474 = sext i32 %1473 to i64, !dbg !5919       ; [#uses=1 type=i64] [debug line = 222:22]
  %1475 = getelementptr inbounds [48 x [1 x [3 x [3 x float]]]]* @ShuffleConvs_1_ShuffleUnit1_7_conv2_weight, i32 0, i64 %1474, !dbg !5919 ; [#uses=1 type=[1 x [3 x [3 x float]]]*] [debug line = 222:22]
  %1476 = getelementptr inbounds [1 x [3 x [3 x float]]]* %1475, i32 0, i64 0, !dbg !5919 ; [#uses=1 type=[3 x [3 x float]]*] [debug line = 222:22]
  %1477 = getelementptr inbounds [3 x [3 x float]]* %1476, i32 0, i64 %1469, !dbg !5919 ; [#uses=1 type=[3 x float]*] [debug line = 222:22]
  %1478 = getelementptr inbounds [3 x float]* %1477, i32 0, i64 %1467, !dbg !5919 ; [#uses=1 type=float*] [debug line = 222:22]
  store float %1465, float* %1478, align 4, !dbg !5919 ; [debug line = 222:22]
  br label %1479, !dbg !5920                      ; [debug line = 223:18]

; <label>:1479                                    ; preds = %1188
  %1480 = load i32* %i3, align 4, !dbg !5921      ; [#uses=1 type=i32] [debug line = 212:40]
  %1481 = add nsw i32 %1480, 1, !dbg !5921        ; [#uses=1 type=i32] [debug line = 212:40]
  store i32 %1481, i32* %i3, align 4, !dbg !5921  ; [debug line = 212:40]
  br label %1185, !dbg !5921                      ; [debug line = 212:40]

; <label>:1482                                    ; preds = %1185
  call void @llvm.dbg.declare(metadata !{i32* %i4}, metadata !5922), !dbg !5924 ; [debug line = 225:26] [debug variable = i]
  store i32 0, i32* %i4, align 4, !dbg !5925      ; [debug line = 225:31]
  br label %1483, !dbg !5925                      ; [debug line = 225:31]

; <label>:1483                                    ; preds = %1632, %1482
  %1484 = load i32* %i4, align 4, !dbg !5925      ; [#uses=1 type=i32] [debug line = 225:31]
  %1485 = icmp slt i32 %1484, 4, !dbg !5925       ; [#uses=1 type=i1] [debug line = 225:31]
  br i1 %1485, label %1486, label %1635, !dbg !5925 ; [debug line = 225:31]

; <label>:1486                                    ; preds = %1483
  %1487 = load i32* %h, align 4, !dbg !5926       ; [#uses=1 type=i32] [debug line = 226:22]
  %1488 = sext i32 %1487 to i64, !dbg !5926       ; [#uses=1 type=i64] [debug line = 226:22]
  %1489 = load i32* %w, align 4, !dbg !5926       ; [#uses=1 type=i32] [debug line = 226:22]
  %1490 = sext i32 %1489 to i64, !dbg !5926       ; [#uses=1 type=i64] [debug line = 226:22]
  %1491 = load i32* %co2, align 4, !dbg !5926     ; [#uses=1 type=i32] [debug line = 226:22]
  %1492 = add nsw i32 %1491, 600, !dbg !5926      ; [#uses=1 type=i32] [debug line = 226:22]
  %1493 = load i32* %i4, align 4, !dbg !5926      ; [#uses=1 type=i32] [debug line = 226:22]
  %1494 = mul nsw i32 %1493, 24, !dbg !5926       ; [#uses=1 type=i32] [debug line = 226:22]
  %1495 = add nsw i32 %1492, %1494, !dbg !5926    ; [#uses=1 type=i32] [debug line = 226:22]
  %1496 = sext i32 %1495 to i64, !dbg !5926       ; [#uses=1 type=i64] [debug line = 226:22]
  %1497 = load [1 x [3 x [3 x float]]]** %3, align 8, !dbg !5926 ; [#uses=1 type=[1 x [3 x [3 x float]]]*] [debug line = 226:22]
  %1498 = getelementptr inbounds [1 x [3 x [3 x float]]]* %1497, i64 %1496, !dbg !5926 ; [#uses=1 type=[1 x [3 x [3 x float]]]*] [debug line = 226:22]
  %1499 = getelementptr inbounds [1 x [3 x [3 x float]]]* %1498, i32 0, i64 0, !dbg !5926 ; [#uses=1 type=[3 x [3 x float]]*] [debug line = 226:22]
  %1500 = getelementptr inbounds [3 x [3 x float]]* %1499, i32 0, i64 %1490, !dbg !5926 ; [#uses=1 type=[3 x float]*] [debug line = 226:22]
  %1501 = getelementptr inbounds [3 x float]* %1500, i32 0, i64 %1488, !dbg !5926 ; [#uses=1 type=float*] [debug line = 226:22]
  %1502 = load float* %1501, align 4, !dbg !5926  ; [#uses=1 type=float] [debug line = 226:22]
  %1503 = load i32* %h, align 4, !dbg !5926       ; [#uses=1 type=i32] [debug line = 226:22]
  %1504 = sext i32 %1503 to i64, !dbg !5926       ; [#uses=1 type=i64] [debug line = 226:22]
  %1505 = load i32* %w, align 4, !dbg !5926       ; [#uses=1 type=i32] [debug line = 226:22]
  %1506 = sext i32 %1505 to i64, !dbg !5926       ; [#uses=1 type=i64] [debug line = 226:22]
  %1507 = load i32* %co2, align 4, !dbg !5926     ; [#uses=1 type=i32] [debug line = 226:22]
  %1508 = load i32* %i4, align 4, !dbg !5926      ; [#uses=1 type=i32] [debug line = 226:22]
  %1509 = mul nsw i32 %1508, 24, !dbg !5926       ; [#uses=1 type=i32] [debug line = 226:22]
  %1510 = add nsw i32 %1507, %1509, !dbg !5926    ; [#uses=1 type=i32] [debug line = 226:22]
  %1511 = sext i32 %1510 to i64, !dbg !5926       ; [#uses=1 type=i64] [debug line = 226:22]
  %1512 = getelementptr inbounds [96 x [1 x [3 x [3 x float]]]]* @ShuffleConvs_2_DownsampleUnit_conv2r_weight, i32 0, i64 %1511, !dbg !5926 ; [#uses=1 type=[1 x [3 x [3 x float]]]*] [debug line = 226:22]
  %1513 = getelementptr inbounds [1 x [3 x [3 x float]]]* %1512, i32 0, i64 0, !dbg !5926 ; [#uses=1 type=[3 x [3 x float]]*] [debug line = 226:22]
  %1514 = getelementptr inbounds [3 x [3 x float]]* %1513, i32 0, i64 %1506, !dbg !5926 ; [#uses=1 type=[3 x float]*] [debug line = 226:22]
  %1515 = getelementptr inbounds [3 x float]* %1514, i32 0, i64 %1504, !dbg !5926 ; [#uses=1 type=float*] [debug line = 226:22]
  store float %1502, float* %1515, align 4, !dbg !5926 ; [debug line = 226:22]
  %1516 = load i32* %h, align 4, !dbg !5928       ; [#uses=1 type=i32] [debug line = 227:22]
  %1517 = sext i32 %1516 to i64, !dbg !5928       ; [#uses=1 type=i64] [debug line = 227:22]
  %1518 = load i32* %w, align 4, !dbg !5928       ; [#uses=1 type=i32] [debug line = 227:22]
  %1519 = sext i32 %1518 to i64, !dbg !5928       ; [#uses=1 type=i64] [debug line = 227:22]
  %1520 = load i32* %co2, align 4, !dbg !5928     ; [#uses=1 type=i32] [debug line = 227:22]
  %1521 = add nsw i32 %1520, 696, !dbg !5928      ; [#uses=1 type=i32] [debug line = 227:22]
  %1522 = load i32* %i4, align 4, !dbg !5928      ; [#uses=1 type=i32] [debug line = 227:22]
  %1523 = mul nsw i32 %1522, 24, !dbg !5928       ; [#uses=1 type=i32] [debug line = 227:22]
  %1524 = add nsw i32 %1521, %1523, !dbg !5928    ; [#uses=1 type=i32] [debug line = 227:22]
  %1525 = sext i32 %1524 to i64, !dbg !5928       ; [#uses=1 type=i64] [debug line = 227:22]
  %1526 = load [1 x [3 x [3 x float]]]** %3, align 8, !dbg !5928 ; [#uses=1 type=[1 x [3 x [3 x float]]]*] [debug line = 227:22]
  %1527 = getelementptr inbounds [1 x [3 x [3 x float]]]* %1526, i64 %1525, !dbg !5928 ; [#uses=1 type=[1 x [3 x [3 x float]]]*] [debug line = 227:22]
  %1528 = getelementptr inbounds [1 x [3 x [3 x float]]]* %1527, i32 0, i64 0, !dbg !5928 ; [#uses=1 type=[3 x [3 x float]]*] [debug line = 227:22]
  %1529 = getelementptr inbounds [3 x [3 x float]]* %1528, i32 0, i64 %1519, !dbg !5928 ; [#uses=1 type=[3 x float]*] [debug line = 227:22]
  %1530 = getelementptr inbounds [3 x float]* %1529, i32 0, i64 %1517, !dbg !5928 ; [#uses=1 type=float*] [debug line = 227:22]
  %1531 = load float* %1530, align 4, !dbg !5928  ; [#uses=1 type=float] [debug line = 227:22]
  %1532 = load i32* %h, align 4, !dbg !5928       ; [#uses=1 type=i32] [debug line = 227:22]
  %1533 = sext i32 %1532 to i64, !dbg !5928       ; [#uses=1 type=i64] [debug line = 227:22]
  %1534 = load i32* %w, align 4, !dbg !5928       ; [#uses=1 type=i32] [debug line = 227:22]
  %1535 = sext i32 %1534 to i64, !dbg !5928       ; [#uses=1 type=i64] [debug line = 227:22]
  %1536 = load i32* %co2, align 4, !dbg !5928     ; [#uses=1 type=i32] [debug line = 227:22]
  %1537 = load i32* %i4, align 4, !dbg !5928      ; [#uses=1 type=i32] [debug line = 227:22]
  %1538 = mul nsw i32 %1537, 24, !dbg !5928       ; [#uses=1 type=i32] [debug line = 227:22]
  %1539 = add nsw i32 %1536, %1538, !dbg !5928    ; [#uses=1 type=i32] [debug line = 227:22]
  %1540 = sext i32 %1539 to i64, !dbg !5928       ; [#uses=1 type=i64] [debug line = 227:22]
  %1541 = getelementptr inbounds [96 x [1 x [3 x [3 x float]]]]* @ShuffleConvs_2_DownsampleUnit_conv1l_weight, i32 0, i64 %1540, !dbg !5928 ; [#uses=1 type=[1 x [3 x [3 x float]]]*] [debug line = 227:22]
  %1542 = getelementptr inbounds [1 x [3 x [3 x float]]]* %1541, i32 0, i64 0, !dbg !5928 ; [#uses=1 type=[3 x [3 x float]]*] [debug line = 227:22]
  %1543 = getelementptr inbounds [3 x [3 x float]]* %1542, i32 0, i64 %1535, !dbg !5928 ; [#uses=1 type=[3 x float]*] [debug line = 227:22]
  %1544 = getelementptr inbounds [3 x float]* %1543, i32 0, i64 %1533, !dbg !5928 ; [#uses=1 type=float*] [debug line = 227:22]
  store float %1531, float* %1544, align 4, !dbg !5928 ; [debug line = 227:22]
  %1545 = load i32* %h, align 4, !dbg !5929       ; [#uses=1 type=i32] [debug line = 228:22]
  %1546 = sext i32 %1545 to i64, !dbg !5929       ; [#uses=1 type=i64] [debug line = 228:22]
  %1547 = load i32* %w, align 4, !dbg !5929       ; [#uses=1 type=i32] [debug line = 228:22]
  %1548 = sext i32 %1547 to i64, !dbg !5929       ; [#uses=1 type=i64] [debug line = 228:22]
  %1549 = load i32* %co2, align 4, !dbg !5929     ; [#uses=1 type=i32] [debug line = 228:22]
  %1550 = add nsw i32 %1549, 792, !dbg !5929      ; [#uses=1 type=i32] [debug line = 228:22]
  %1551 = load i32* %i4, align 4, !dbg !5929      ; [#uses=1 type=i32] [debug line = 228:22]
  %1552 = mul nsw i32 %1551, 24, !dbg !5929       ; [#uses=1 type=i32] [debug line = 228:22]
  %1553 = add nsw i32 %1550, %1552, !dbg !5929    ; [#uses=1 type=i32] [debug line = 228:22]
  %1554 = sext i32 %1553 to i64, !dbg !5929       ; [#uses=1 type=i64] [debug line = 228:22]
  %1555 = load [1 x [3 x [3 x float]]]** %3, align 8, !dbg !5929 ; [#uses=1 type=[1 x [3 x [3 x float]]]*] [debug line = 228:22]
  %1556 = getelementptr inbounds [1 x [3 x [3 x float]]]* %1555, i64 %1554, !dbg !5929 ; [#uses=1 type=[1 x [3 x [3 x float]]]*] [debug line = 228:22]
  %1557 = getelementptr inbounds [1 x [3 x [3 x float]]]* %1556, i32 0, i64 0, !dbg !5929 ; [#uses=1 type=[3 x [3 x float]]*] [debug line = 228:22]
  %1558 = getelementptr inbounds [3 x [3 x float]]* %1557, i32 0, i64 %1548, !dbg !5929 ; [#uses=1 type=[3 x float]*] [debug line = 228:22]
  %1559 = getelementptr inbounds [3 x float]* %1558, i32 0, i64 %1546, !dbg !5929 ; [#uses=1 type=float*] [debug line = 228:22]
  %1560 = load float* %1559, align 4, !dbg !5929  ; [#uses=1 type=float] [debug line = 228:22]
  %1561 = load i32* %h, align 4, !dbg !5929       ; [#uses=1 type=i32] [debug line = 228:22]
  %1562 = sext i32 %1561 to i64, !dbg !5929       ; [#uses=1 type=i64] [debug line = 228:22]
  %1563 = load i32* %w, align 4, !dbg !5929       ; [#uses=1 type=i32] [debug line = 228:22]
  %1564 = sext i32 %1563 to i64, !dbg !5929       ; [#uses=1 type=i64] [debug line = 228:22]
  %1565 = load i32* %co2, align 4, !dbg !5929     ; [#uses=1 type=i32] [debug line = 228:22]
  %1566 = load i32* %i4, align 4, !dbg !5929      ; [#uses=1 type=i32] [debug line = 228:22]
  %1567 = mul nsw i32 %1566, 24, !dbg !5929       ; [#uses=1 type=i32] [debug line = 228:22]
  %1568 = add nsw i32 %1565, %1567, !dbg !5929    ; [#uses=1 type=i32] [debug line = 228:22]
  %1569 = sext i32 %1568 to i64, !dbg !5929       ; [#uses=1 type=i64] [debug line = 228:22]
  %1570 = getelementptr inbounds [96 x [1 x [3 x [3 x float]]]]* @ShuffleConvs_2_ShuffleUnit2_0_conv2_weight, i32 0, i64 %1569, !dbg !5929 ; [#uses=1 type=[1 x [3 x [3 x float]]]*] [debug line = 228:22]
  %1571 = getelementptr inbounds [1 x [3 x [3 x float]]]* %1570, i32 0, i64 0, !dbg !5929 ; [#uses=1 type=[3 x [3 x float]]*] [debug line = 228:22]
  %1572 = getelementptr inbounds [3 x [3 x float]]* %1571, i32 0, i64 %1564, !dbg !5929 ; [#uses=1 type=[3 x float]*] [debug line = 228:22]
  %1573 = getelementptr inbounds [3 x float]* %1572, i32 0, i64 %1562, !dbg !5929 ; [#uses=1 type=float*] [debug line = 228:22]
  store float %1560, float* %1573, align 4, !dbg !5929 ; [debug line = 228:22]
  %1574 = load i32* %h, align 4, !dbg !5930       ; [#uses=1 type=i32] [debug line = 229:22]
  %1575 = sext i32 %1574 to i64, !dbg !5930       ; [#uses=1 type=i64] [debug line = 229:22]
  %1576 = load i32* %w, align 4, !dbg !5930       ; [#uses=1 type=i32] [debug line = 229:22]
  %1577 = sext i32 %1576 to i64, !dbg !5930       ; [#uses=1 type=i64] [debug line = 229:22]
  %1578 = load i32* %co2, align 4, !dbg !5930     ; [#uses=1 type=i32] [debug line = 229:22]
  %1579 = add nsw i32 %1578, 888, !dbg !5930      ; [#uses=1 type=i32] [debug line = 229:22]
  %1580 = load i32* %i4, align 4, !dbg !5930      ; [#uses=1 type=i32] [debug line = 229:22]
  %1581 = mul nsw i32 %1580, 24, !dbg !5930       ; [#uses=1 type=i32] [debug line = 229:22]
  %1582 = add nsw i32 %1579, %1581, !dbg !5930    ; [#uses=1 type=i32] [debug line = 229:22]
  %1583 = sext i32 %1582 to i64, !dbg !5930       ; [#uses=1 type=i64] [debug line = 229:22]
  %1584 = load [1 x [3 x [3 x float]]]** %3, align 8, !dbg !5930 ; [#uses=1 type=[1 x [3 x [3 x float]]]*] [debug line = 229:22]
  %1585 = getelementptr inbounds [1 x [3 x [3 x float]]]* %1584, i64 %1583, !dbg !5930 ; [#uses=1 type=[1 x [3 x [3 x float]]]*] [debug line = 229:22]
  %1586 = getelementptr inbounds [1 x [3 x [3 x float]]]* %1585, i32 0, i64 0, !dbg !5930 ; [#uses=1 type=[3 x [3 x float]]*] [debug line = 229:22]
  %1587 = getelementptr inbounds [3 x [3 x float]]* %1586, i32 0, i64 %1577, !dbg !5930 ; [#uses=1 type=[3 x float]*] [debug line = 229:22]
  %1588 = getelementptr inbounds [3 x float]* %1587, i32 0, i64 %1575, !dbg !5930 ; [#uses=1 type=float*] [debug line = 229:22]
  %1589 = load float* %1588, align 4, !dbg !5930  ; [#uses=1 type=float] [debug line = 229:22]
  %1590 = load i32* %h, align 4, !dbg !5930       ; [#uses=1 type=i32] [debug line = 229:22]
  %1591 = sext i32 %1590 to i64, !dbg !5930       ; [#uses=1 type=i64] [debug line = 229:22]
  %1592 = load i32* %w, align 4, !dbg !5930       ; [#uses=1 type=i32] [debug line = 229:22]
  %1593 = sext i32 %1592 to i64, !dbg !5930       ; [#uses=1 type=i64] [debug line = 229:22]
  %1594 = load i32* %co2, align 4, !dbg !5930     ; [#uses=1 type=i32] [debug line = 229:22]
  %1595 = load i32* %i4, align 4, !dbg !5930      ; [#uses=1 type=i32] [debug line = 229:22]
  %1596 = mul nsw i32 %1595, 24, !dbg !5930       ; [#uses=1 type=i32] [debug line = 229:22]
  %1597 = add nsw i32 %1594, %1596, !dbg !5930    ; [#uses=1 type=i32] [debug line = 229:22]
  %1598 = sext i32 %1597 to i64, !dbg !5930       ; [#uses=1 type=i64] [debug line = 229:22]
  %1599 = getelementptr inbounds [96 x [1 x [3 x [3 x float]]]]* @ShuffleConvs_2_ShuffleUnit2_1_conv2_weight, i32 0, i64 %1598, !dbg !5930 ; [#uses=1 type=[1 x [3 x [3 x float]]]*] [debug line = 229:22]
  %1600 = getelementptr inbounds [1 x [3 x [3 x float]]]* %1599, i32 0, i64 0, !dbg !5930 ; [#uses=1 type=[3 x [3 x float]]*] [debug line = 229:22]
  %1601 = getelementptr inbounds [3 x [3 x float]]* %1600, i32 0, i64 %1593, !dbg !5930 ; [#uses=1 type=[3 x float]*] [debug line = 229:22]
  %1602 = getelementptr inbounds [3 x float]* %1601, i32 0, i64 %1591, !dbg !5930 ; [#uses=1 type=float*] [debug line = 229:22]
  store float %1589, float* %1602, align 4, !dbg !5930 ; [debug line = 229:22]
  %1603 = load i32* %h, align 4, !dbg !5931       ; [#uses=1 type=i32] [debug line = 230:22]
  %1604 = sext i32 %1603 to i64, !dbg !5931       ; [#uses=1 type=i64] [debug line = 230:22]
  %1605 = load i32* %w, align 4, !dbg !5931       ; [#uses=1 type=i32] [debug line = 230:22]
  %1606 = sext i32 %1605 to i64, !dbg !5931       ; [#uses=1 type=i64] [debug line = 230:22]
  %1607 = load i32* %co2, align 4, !dbg !5931     ; [#uses=1 type=i32] [debug line = 230:22]
  %1608 = add nsw i32 %1607, 984, !dbg !5931      ; [#uses=1 type=i32] [debug line = 230:22]
  %1609 = load i32* %i4, align 4, !dbg !5931      ; [#uses=1 type=i32] [debug line = 230:22]
  %1610 = mul nsw i32 %1609, 24, !dbg !5931       ; [#uses=1 type=i32] [debug line = 230:22]
  %1611 = add nsw i32 %1608, %1610, !dbg !5931    ; [#uses=1 type=i32] [debug line = 230:22]
  %1612 = sext i32 %1611 to i64, !dbg !5931       ; [#uses=1 type=i64] [debug line = 230:22]
  %1613 = load [1 x [3 x [3 x float]]]** %3, align 8, !dbg !5931 ; [#uses=1 type=[1 x [3 x [3 x float]]]*] [debug line = 230:22]
  %1614 = getelementptr inbounds [1 x [3 x [3 x float]]]* %1613, i64 %1612, !dbg !5931 ; [#uses=1 type=[1 x [3 x [3 x float]]]*] [debug line = 230:22]
  %1615 = getelementptr inbounds [1 x [3 x [3 x float]]]* %1614, i32 0, i64 0, !dbg !5931 ; [#uses=1 type=[3 x [3 x float]]*] [debug line = 230:22]
  %1616 = getelementptr inbounds [3 x [3 x float]]* %1615, i32 0, i64 %1606, !dbg !5931 ; [#uses=1 type=[3 x float]*] [debug line = 230:22]
  %1617 = getelementptr inbounds [3 x float]* %1616, i32 0, i64 %1604, !dbg !5931 ; [#uses=1 type=float*] [debug line = 230:22]
  %1618 = load float* %1617, align 4, !dbg !5931  ; [#uses=1 type=float] [debug line = 230:22]
  %1619 = load i32* %h, align 4, !dbg !5931       ; [#uses=1 type=i32] [debug line = 230:22]
  %1620 = sext i32 %1619 to i64, !dbg !5931       ; [#uses=1 type=i64] [debug line = 230:22]
  %1621 = load i32* %w, align 4, !dbg !5931       ; [#uses=1 type=i32] [debug line = 230:22]
  %1622 = sext i32 %1621 to i64, !dbg !5931       ; [#uses=1 type=i64] [debug line = 230:22]
  %1623 = load i32* %co2, align 4, !dbg !5931     ; [#uses=1 type=i32] [debug line = 230:22]
  %1624 = load i32* %i4, align 4, !dbg !5931      ; [#uses=1 type=i32] [debug line = 230:22]
  %1625 = mul nsw i32 %1624, 24, !dbg !5931       ; [#uses=1 type=i32] [debug line = 230:22]
  %1626 = add nsw i32 %1623, %1625, !dbg !5931    ; [#uses=1 type=i32] [debug line = 230:22]
  %1627 = sext i32 %1626 to i64, !dbg !5931       ; [#uses=1 type=i64] [debug line = 230:22]
  %1628 = getelementptr inbounds [96 x [1 x [3 x [3 x float]]]]* @ShuffleConvs_2_ShuffleUnit2_2_conv2_weight, i32 0, i64 %1627, !dbg !5931 ; [#uses=1 type=[1 x [3 x [3 x float]]]*] [debug line = 230:22]
  %1629 = getelementptr inbounds [1 x [3 x [3 x float]]]* %1628, i32 0, i64 0, !dbg !5931 ; [#uses=1 type=[3 x [3 x float]]*] [debug line = 230:22]
  %1630 = getelementptr inbounds [3 x [3 x float]]* %1629, i32 0, i64 %1622, !dbg !5931 ; [#uses=1 type=[3 x float]*] [debug line = 230:22]
  %1631 = getelementptr inbounds [3 x float]* %1630, i32 0, i64 %1620, !dbg !5931 ; [#uses=1 type=float*] [debug line = 230:22]
  store float %1618, float* %1631, align 4, !dbg !5931 ; [debug line = 230:22]
  br label %1632, !dbg !5932                      ; [debug line = 231:18]

; <label>:1632                                    ; preds = %1486
  %1633 = load i32* %i4, align 4, !dbg !5933      ; [#uses=1 type=i32] [debug line = 225:40]
  %1634 = add nsw i32 %1633, 1, !dbg !5933        ; [#uses=1 type=i32] [debug line = 225:40]
  store i32 %1634, i32* %i4, align 4, !dbg !5933  ; [debug line = 225:40]
  br label %1483, !dbg !5933                      ; [debug line = 225:40]

; <label>:1635                                    ; preds = %1483
  br label %1636, !dbg !5934                      ; [debug line = 232:14]

; <label>:1636                                    ; preds = %1635
  %1637 = load i32* %h, align 4, !dbg !5935       ; [#uses=1 type=i32] [debug line = 204:34]
  %1638 = add nsw i32 %1637, 1, !dbg !5935        ; [#uses=1 type=i32] [debug line = 204:34]
  store i32 %1638, i32* %h, align 4, !dbg !5935   ; [debug line = 204:34]
  br label %1067, !dbg !5935                      ; [debug line = 204:34]

; <label>:1639                                    ; preds = %1067
  br label %1640, !dbg !5936                      ; [debug line = 233:10]

; <label>:1640                                    ; preds = %1639
  %1641 = load i32* %w, align 4, !dbg !5937       ; [#uses=1 type=i32] [debug line = 203:31]
  %1642 = add nsw i32 %1641, 1, !dbg !5937        ; [#uses=1 type=i32] [debug line = 203:31]
  store i32 %1642, i32* %w, align 4, !dbg !5937   ; [debug line = 203:31]
  br label %1063, !dbg !5937                      ; [debug line = 203:31]

; <label>:1643                                    ; preds = %1063
  br label %1644, !dbg !5938                      ; [debug line = 235:6]

; <label>:1644                                    ; preds = %1643
  %1645 = load i32* %co2, align 4, !dbg !5939     ; [#uses=1 type=i32] [debug line = 202:27]
  %1646 = add nsw i32 %1645, 1, !dbg !5939        ; [#uses=1 type=i32] [debug line = 202:27]
  store i32 %1646, i32* %co2, align 4, !dbg !5939 ; [debug line = 202:27]
  br label %1059, !dbg !5939                      ; [debug line = 202:27]

; <label>:1647                                    ; preds = %1059
  call void @llvm.dbg.declare(metadata !{i32* %i5}, metadata !5940), !dbg !5942 ; [debug line = 238:14] [debug variable = i]
  store i32 0, i32* %i5, align 4, !dbg !5943      ; [debug line = 238:19]
  br label %1648, !dbg !5943                      ; [debug line = 238:19]

; <label>:1648                                    ; preds = %2447, %1647
  %1649 = load i32* %i5, align 4, !dbg !5943      ; [#uses=1 type=i32] [debug line = 238:19]
  %1650 = icmp slt i32 %1649, 24, !dbg !5943      ; [#uses=1 type=i1] [debug line = 238:19]
  br i1 %1650, label %1651, label %2450, !dbg !5943 ; [debug line = 238:19]

; <label>:1651                                    ; preds = %1648
  %1652 = load i32* %i5, align 4, !dbg !5944      ; [#uses=1 type=i32] [debug line = 239:10]
  %1653 = sext i32 %1652 to i64, !dbg !5944       ; [#uses=1 type=i64] [debug line = 239:10]
  %1654 = load float** %7, align 8, !dbg !5944    ; [#uses=1 type=float*] [debug line = 239:10]
  %1655 = getelementptr inbounds float* %1654, i64 %1653, !dbg !5944 ; [#uses=1 type=float*] [debug line = 239:10]
  %1656 = load float* %1655, align 4, !dbg !5944  ; [#uses=1 type=float] [debug line = 239:10]
  %1657 = load i32* %i5, align 4, !dbg !5944      ; [#uses=1 type=i32] [debug line = 239:10]
  %1658 = sext i32 %1657 to i64, !dbg !5944       ; [#uses=1 type=i64] [debug line = 239:10]
  %1659 = getelementptr inbounds [24 x float]* @conv1_bias, i32 0, i64 %1658, !dbg !5944 ; [#uses=1 type=float*] [debug line = 239:10]
  store float %1656, float* %1659, align 4, !dbg !5944 ; [debug line = 239:10]
  %1660 = load i32* %i5, align 4, !dbg !5946      ; [#uses=1 type=i32] [debug line = 240:10]
  %1661 = add nsw i32 %1660, 24, !dbg !5946       ; [#uses=1 type=i32] [debug line = 240:10]
  %1662 = sext i32 %1661 to i64, !dbg !5946       ; [#uses=1 type=i64] [debug line = 240:10]
  %1663 = load float** %7, align 8, !dbg !5946    ; [#uses=1 type=float*] [debug line = 240:10]
  %1664 = getelementptr inbounds float* %1663, i64 %1662, !dbg !5946 ; [#uses=1 type=float*] [debug line = 240:10]
  %1665 = load float* %1664, align 4, !dbg !5946  ; [#uses=1 type=float] [debug line = 240:10]
  %1666 = load i32* %i5, align 4, !dbg !5946      ; [#uses=1 type=i32] [debug line = 240:10]
  %1667 = sext i32 %1666 to i64, !dbg !5946       ; [#uses=1 type=i64] [debug line = 240:10]
  %1668 = getelementptr inbounds [24 x float]* @ShuffleConvs_0_DownsampleUnit_conv1r_bias, i32 0, i64 %1667, !dbg !5946 ; [#uses=1 type=float*] [debug line = 240:10]
  store float %1665, float* %1668, align 4, !dbg !5946 ; [debug line = 240:10]
  %1669 = load i32* %i5, align 4, !dbg !5947      ; [#uses=1 type=i32] [debug line = 241:10]
  %1670 = add nsw i32 %1669, 48, !dbg !5947       ; [#uses=1 type=i32] [debug line = 241:10]
  %1671 = sext i32 %1670 to i64, !dbg !5947       ; [#uses=1 type=i64] [debug line = 241:10]
  %1672 = load float** %7, align 8, !dbg !5947    ; [#uses=1 type=float*] [debug line = 241:10]
  %1673 = getelementptr inbounds float* %1672, i64 %1671, !dbg !5947 ; [#uses=1 type=float*] [debug line = 241:10]
  %1674 = load float* %1673, align 4, !dbg !5947  ; [#uses=1 type=float] [debug line = 241:10]
  %1675 = load i32* %i5, align 4, !dbg !5947      ; [#uses=1 type=i32] [debug line = 241:10]
  %1676 = sext i32 %1675 to i64, !dbg !5947       ; [#uses=1 type=i64] [debug line = 241:10]
  %1677 = getelementptr inbounds [24 x float]* @ShuffleConvs_0_DownsampleUnit_conv2r_bias, i32 0, i64 %1676, !dbg !5947 ; [#uses=1 type=float*] [debug line = 241:10]
  store float %1674, float* %1677, align 4, !dbg !5947 ; [debug line = 241:10]
  %1678 = load i32* %i5, align 4, !dbg !5948      ; [#uses=1 type=i32] [debug line = 242:10]
  %1679 = add nsw i32 %1678, 72, !dbg !5948       ; [#uses=1 type=i32] [debug line = 242:10]
  %1680 = sext i32 %1679 to i64, !dbg !5948       ; [#uses=1 type=i64] [debug line = 242:10]
  %1681 = load float** %7, align 8, !dbg !5948    ; [#uses=1 type=float*] [debug line = 242:10]
  %1682 = getelementptr inbounds float* %1681, i64 %1680, !dbg !5948 ; [#uses=1 type=float*] [debug line = 242:10]
  %1683 = load float* %1682, align 4, !dbg !5948  ; [#uses=1 type=float] [debug line = 242:10]
  %1684 = load i32* %i5, align 4, !dbg !5948      ; [#uses=1 type=i32] [debug line = 242:10]
  %1685 = sext i32 %1684 to i64, !dbg !5948       ; [#uses=1 type=i64] [debug line = 242:10]
  %1686 = getelementptr inbounds [24 x float]* @ShuffleConvs_0_DownsampleUnit_conv3r_bias, i32 0, i64 %1685, !dbg !5948 ; [#uses=1 type=float*] [debug line = 242:10]
  store float %1683, float* %1686, align 4, !dbg !5948 ; [debug line = 242:10]
  %1687 = load i32* %i5, align 4, !dbg !5949      ; [#uses=1 type=i32] [debug line = 243:10]
  %1688 = add nsw i32 %1687, 96, !dbg !5949       ; [#uses=1 type=i32] [debug line = 243:10]
  %1689 = sext i32 %1688 to i64, !dbg !5949       ; [#uses=1 type=i64] [debug line = 243:10]
  %1690 = load float** %7, align 8, !dbg !5949    ; [#uses=1 type=float*] [debug line = 243:10]
  %1691 = getelementptr inbounds float* %1690, i64 %1689, !dbg !5949 ; [#uses=1 type=float*] [debug line = 243:10]
  %1692 = load float* %1691, align 4, !dbg !5949  ; [#uses=1 type=float] [debug line = 243:10]
  %1693 = load i32* %i5, align 4, !dbg !5949      ; [#uses=1 type=i32] [debug line = 243:10]
  %1694 = sext i32 %1693 to i64, !dbg !5949       ; [#uses=1 type=i64] [debug line = 243:10]
  %1695 = getelementptr inbounds [24 x float]* @ShuffleConvs_0_DownsampleUnit_conv1l_bias, i32 0, i64 %1694, !dbg !5949 ; [#uses=1 type=float*] [debug line = 243:10]
  store float %1692, float* %1695, align 4, !dbg !5949 ; [debug line = 243:10]
  %1696 = load i32* %i5, align 4, !dbg !5950      ; [#uses=1 type=i32] [debug line = 244:10]
  %1697 = add nsw i32 %1696, 120, !dbg !5950      ; [#uses=1 type=i32] [debug line = 244:10]
  %1698 = sext i32 %1697 to i64, !dbg !5950       ; [#uses=1 type=i64] [debug line = 244:10]
  %1699 = load float** %7, align 8, !dbg !5950    ; [#uses=1 type=float*] [debug line = 244:10]
  %1700 = getelementptr inbounds float* %1699, i64 %1698, !dbg !5950 ; [#uses=1 type=float*] [debug line = 244:10]
  %1701 = load float* %1700, align 4, !dbg !5950  ; [#uses=1 type=float] [debug line = 244:10]
  %1702 = load i32* %i5, align 4, !dbg !5950      ; [#uses=1 type=i32] [debug line = 244:10]
  %1703 = sext i32 %1702 to i64, !dbg !5950       ; [#uses=1 type=i64] [debug line = 244:10]
  %1704 = getelementptr inbounds [24 x float]* @ShuffleConvs_0_DownsampleUnit_conv2l_bias, i32 0, i64 %1703, !dbg !5950 ; [#uses=1 type=float*] [debug line = 244:10]
  store float %1701, float* %1704, align 4, !dbg !5950 ; [debug line = 244:10]
  %1705 = load i32* %i5, align 4, !dbg !5951      ; [#uses=1 type=i32] [debug line = 245:10]
  %1706 = add nsw i32 %1705, 144, !dbg !5951      ; [#uses=1 type=i32] [debug line = 245:10]
  %1707 = sext i32 %1706 to i64, !dbg !5951       ; [#uses=1 type=i64] [debug line = 245:10]
  %1708 = load float** %7, align 8, !dbg !5951    ; [#uses=1 type=float*] [debug line = 245:10]
  %1709 = getelementptr inbounds float* %1708, i64 %1707, !dbg !5951 ; [#uses=1 type=float*] [debug line = 245:10]
  %1710 = load float* %1709, align 4, !dbg !5951  ; [#uses=1 type=float] [debug line = 245:10]
  %1711 = load i32* %i5, align 4, !dbg !5951      ; [#uses=1 type=i32] [debug line = 245:10]
  %1712 = sext i32 %1711 to i64, !dbg !5951       ; [#uses=1 type=i64] [debug line = 245:10]
  %1713 = getelementptr inbounds [24 x float]* @ShuffleConvs_0_ShuffleUnit0_0_conv1_bias, i32 0, i64 %1712, !dbg !5951 ; [#uses=1 type=float*] [debug line = 245:10]
  store float %1710, float* %1713, align 4, !dbg !5951 ; [debug line = 245:10]
  %1714 = load i32* %i5, align 4, !dbg !5952      ; [#uses=1 type=i32] [debug line = 246:10]
  %1715 = add nsw i32 %1714, 168, !dbg !5952      ; [#uses=1 type=i32] [debug line = 246:10]
  %1716 = sext i32 %1715 to i64, !dbg !5952       ; [#uses=1 type=i64] [debug line = 246:10]
  %1717 = load float** %7, align 8, !dbg !5952    ; [#uses=1 type=float*] [debug line = 246:10]
  %1718 = getelementptr inbounds float* %1717, i64 %1716, !dbg !5952 ; [#uses=1 type=float*] [debug line = 246:10]
  %1719 = load float* %1718, align 4, !dbg !5952  ; [#uses=1 type=float] [debug line = 246:10]
  %1720 = load i32* %i5, align 4, !dbg !5952      ; [#uses=1 type=i32] [debug line = 246:10]
  %1721 = sext i32 %1720 to i64, !dbg !5952       ; [#uses=1 type=i64] [debug line = 246:10]
  %1722 = getelementptr inbounds [24 x float]* @ShuffleConvs_0_ShuffleUnit0_0_conv2_bias, i32 0, i64 %1721, !dbg !5952 ; [#uses=1 type=float*] [debug line = 246:10]
  store float %1719, float* %1722, align 4, !dbg !5952 ; [debug line = 246:10]
  %1723 = load i32* %i5, align 4, !dbg !5953      ; [#uses=1 type=i32] [debug line = 247:10]
  %1724 = add nsw i32 %1723, 192, !dbg !5953      ; [#uses=1 type=i32] [debug line = 247:10]
  %1725 = sext i32 %1724 to i64, !dbg !5953       ; [#uses=1 type=i64] [debug line = 247:10]
  %1726 = load float** %7, align 8, !dbg !5953    ; [#uses=1 type=float*] [debug line = 247:10]
  %1727 = getelementptr inbounds float* %1726, i64 %1725, !dbg !5953 ; [#uses=1 type=float*] [debug line = 247:10]
  %1728 = load float* %1727, align 4, !dbg !5953  ; [#uses=1 type=float] [debug line = 247:10]
  %1729 = load i32* %i5, align 4, !dbg !5953      ; [#uses=1 type=i32] [debug line = 247:10]
  %1730 = sext i32 %1729 to i64, !dbg !5953       ; [#uses=1 type=i64] [debug line = 247:10]
  %1731 = getelementptr inbounds [24 x float]* @ShuffleConvs_0_ShuffleUnit0_0_conv3_bias, i32 0, i64 %1730, !dbg !5953 ; [#uses=1 type=float*] [debug line = 247:10]
  store float %1728, float* %1731, align 4, !dbg !5953 ; [debug line = 247:10]
  %1732 = load i32* %i5, align 4, !dbg !5954      ; [#uses=1 type=i32] [debug line = 248:10]
  %1733 = add nsw i32 %1732, 216, !dbg !5954      ; [#uses=1 type=i32] [debug line = 248:10]
  %1734 = sext i32 %1733 to i64, !dbg !5954       ; [#uses=1 type=i64] [debug line = 248:10]
  %1735 = load float** %7, align 8, !dbg !5954    ; [#uses=1 type=float*] [debug line = 248:10]
  %1736 = getelementptr inbounds float* %1735, i64 %1734, !dbg !5954 ; [#uses=1 type=float*] [debug line = 248:10]
  %1737 = load float* %1736, align 4, !dbg !5954  ; [#uses=1 type=float] [debug line = 248:10]
  %1738 = load i32* %i5, align 4, !dbg !5954      ; [#uses=1 type=i32] [debug line = 248:10]
  %1739 = sext i32 %1738 to i64, !dbg !5954       ; [#uses=1 type=i64] [debug line = 248:10]
  %1740 = getelementptr inbounds [24 x float]* @ShuffleConvs_0_ShuffleUnit0_1_conv1_bias, i32 0, i64 %1739, !dbg !5954 ; [#uses=1 type=float*] [debug line = 248:10]
  store float %1737, float* %1740, align 4, !dbg !5954 ; [debug line = 248:10]
  %1741 = load i32* %i5, align 4, !dbg !5955      ; [#uses=1 type=i32] [debug line = 249:10]
  %1742 = add nsw i32 %1741, 240, !dbg !5955      ; [#uses=1 type=i32] [debug line = 249:10]
  %1743 = sext i32 %1742 to i64, !dbg !5955       ; [#uses=1 type=i64] [debug line = 249:10]
  %1744 = load float** %7, align 8, !dbg !5955    ; [#uses=1 type=float*] [debug line = 249:10]
  %1745 = getelementptr inbounds float* %1744, i64 %1743, !dbg !5955 ; [#uses=1 type=float*] [debug line = 249:10]
  %1746 = load float* %1745, align 4, !dbg !5955  ; [#uses=1 type=float] [debug line = 249:10]
  %1747 = load i32* %i5, align 4, !dbg !5955      ; [#uses=1 type=i32] [debug line = 249:10]
  %1748 = sext i32 %1747 to i64, !dbg !5955       ; [#uses=1 type=i64] [debug line = 249:10]
  %1749 = getelementptr inbounds [24 x float]* @ShuffleConvs_0_ShuffleUnit0_1_conv2_bias, i32 0, i64 %1748, !dbg !5955 ; [#uses=1 type=float*] [debug line = 249:10]
  store float %1746, float* %1749, align 4, !dbg !5955 ; [debug line = 249:10]
  %1750 = load i32* %i5, align 4, !dbg !5956      ; [#uses=1 type=i32] [debug line = 250:10]
  %1751 = add nsw i32 %1750, 264, !dbg !5956      ; [#uses=1 type=i32] [debug line = 250:10]
  %1752 = sext i32 %1751 to i64, !dbg !5956       ; [#uses=1 type=i64] [debug line = 250:10]
  %1753 = load float** %7, align 8, !dbg !5956    ; [#uses=1 type=float*] [debug line = 250:10]
  %1754 = getelementptr inbounds float* %1753, i64 %1752, !dbg !5956 ; [#uses=1 type=float*] [debug line = 250:10]
  %1755 = load float* %1754, align 4, !dbg !5956  ; [#uses=1 type=float] [debug line = 250:10]
  %1756 = load i32* %i5, align 4, !dbg !5956      ; [#uses=1 type=i32] [debug line = 250:10]
  %1757 = sext i32 %1756 to i64, !dbg !5956       ; [#uses=1 type=i64] [debug line = 250:10]
  %1758 = getelementptr inbounds [24 x float]* @ShuffleConvs_0_ShuffleUnit0_1_conv3_bias, i32 0, i64 %1757, !dbg !5956 ; [#uses=1 type=float*] [debug line = 250:10]
  store float %1755, float* %1758, align 4, !dbg !5956 ; [debug line = 250:10]
  %1759 = load i32* %i5, align 4, !dbg !5957      ; [#uses=1 type=i32] [debug line = 251:10]
  %1760 = add nsw i32 %1759, 288, !dbg !5957      ; [#uses=1 type=i32] [debug line = 251:10]
  %1761 = sext i32 %1760 to i64, !dbg !5957       ; [#uses=1 type=i64] [debug line = 251:10]
  %1762 = load float** %7, align 8, !dbg !5957    ; [#uses=1 type=float*] [debug line = 251:10]
  %1763 = getelementptr inbounds float* %1762, i64 %1761, !dbg !5957 ; [#uses=1 type=float*] [debug line = 251:10]
  %1764 = load float* %1763, align 4, !dbg !5957  ; [#uses=1 type=float] [debug line = 251:10]
  %1765 = load i32* %i5, align 4, !dbg !5957      ; [#uses=1 type=i32] [debug line = 251:10]
  %1766 = sext i32 %1765 to i64, !dbg !5957       ; [#uses=1 type=i64] [debug line = 251:10]
  %1767 = getelementptr inbounds [24 x float]* @ShuffleConvs_0_ShuffleUnit0_2_conv1_bias, i32 0, i64 %1766, !dbg !5957 ; [#uses=1 type=float*] [debug line = 251:10]
  store float %1764, float* %1767, align 4, !dbg !5957 ; [debug line = 251:10]
  %1768 = load i32* %i5, align 4, !dbg !5958      ; [#uses=1 type=i32] [debug line = 252:10]
  %1769 = add nsw i32 %1768, 312, !dbg !5958      ; [#uses=1 type=i32] [debug line = 252:10]
  %1770 = sext i32 %1769 to i64, !dbg !5958       ; [#uses=1 type=i64] [debug line = 252:10]
  %1771 = load float** %7, align 8, !dbg !5958    ; [#uses=1 type=float*] [debug line = 252:10]
  %1772 = getelementptr inbounds float* %1771, i64 %1770, !dbg !5958 ; [#uses=1 type=float*] [debug line = 252:10]
  %1773 = load float* %1772, align 4, !dbg !5958  ; [#uses=1 type=float] [debug line = 252:10]
  %1774 = load i32* %i5, align 4, !dbg !5958      ; [#uses=1 type=i32] [debug line = 252:10]
  %1775 = sext i32 %1774 to i64, !dbg !5958       ; [#uses=1 type=i64] [debug line = 252:10]
  %1776 = getelementptr inbounds [24 x float]* @ShuffleConvs_0_ShuffleUnit0_2_conv2_bias, i32 0, i64 %1775, !dbg !5958 ; [#uses=1 type=float*] [debug line = 252:10]
  store float %1773, float* %1776, align 4, !dbg !5958 ; [debug line = 252:10]
  %1777 = load i32* %i5, align 4, !dbg !5959      ; [#uses=1 type=i32] [debug line = 253:10]
  %1778 = add nsw i32 %1777, 336, !dbg !5959      ; [#uses=1 type=i32] [debug line = 253:10]
  %1779 = sext i32 %1778 to i64, !dbg !5959       ; [#uses=1 type=i64] [debug line = 253:10]
  %1780 = load float** %7, align 8, !dbg !5959    ; [#uses=1 type=float*] [debug line = 253:10]
  %1781 = getelementptr inbounds float* %1780, i64 %1779, !dbg !5959 ; [#uses=1 type=float*] [debug line = 253:10]
  %1782 = load float* %1781, align 4, !dbg !5959  ; [#uses=1 type=float] [debug line = 253:10]
  %1783 = load i32* %i5, align 4, !dbg !5959      ; [#uses=1 type=i32] [debug line = 253:10]
  %1784 = sext i32 %1783 to i64, !dbg !5959       ; [#uses=1 type=i64] [debug line = 253:10]
  %1785 = getelementptr inbounds [24 x float]* @ShuffleConvs_0_ShuffleUnit0_2_conv3_bias, i32 0, i64 %1784, !dbg !5959 ; [#uses=1 type=float*] [debug line = 253:10]
  store float %1782, float* %1785, align 4, !dbg !5959 ; [debug line = 253:10]
  call void @llvm.dbg.declare(metadata !{i32* %k}, metadata !5960), !dbg !5962 ; [debug line = 254:18] [debug variable = k]
  store i32 0, i32* %k, align 4, !dbg !5963       ; [debug line = 254:23]
  br label %1786, !dbg !5963                      ; [debug line = 254:23]

; <label>:1786                                    ; preds = %2225, %1651
  %1787 = load i32* %k, align 4, !dbg !5963       ; [#uses=1 type=i32] [debug line = 254:23]
  %1788 = icmp slt i32 %1787, 2, !dbg !5963       ; [#uses=1 type=i1] [debug line = 254:23]
  br i1 %1788, label %1789, label %2228, !dbg !5963 ; [debug line = 254:23]

; <label>:1789                                    ; preds = %1786
  %1790 = load i32* %i5, align 4, !dbg !5964      ; [#uses=1 type=i32] [debug line = 255:14]
  %1791 = add nsw i32 %1790, 360, !dbg !5964      ; [#uses=1 type=i32] [debug line = 255:14]
  %1792 = load i32* %k, align 4, !dbg !5964       ; [#uses=1 type=i32] [debug line = 255:14]
  %1793 = mul nsw i32 %1792, 24, !dbg !5964       ; [#uses=1 type=i32] [debug line = 255:14]
  %1794 = add nsw i32 %1791, %1793, !dbg !5964    ; [#uses=1 type=i32] [debug line = 255:14]
  %1795 = sext i32 %1794 to i64, !dbg !5964       ; [#uses=1 type=i64] [debug line = 255:14]
  %1796 = load float** %7, align 8, !dbg !5964    ; [#uses=1 type=float*] [debug line = 255:14]
  %1797 = getelementptr inbounds float* %1796, i64 %1795, !dbg !5964 ; [#uses=1 type=float*] [debug line = 255:14]
  %1798 = load float* %1797, align 4, !dbg !5964  ; [#uses=1 type=float] [debug line = 255:14]
  %1799 = load i32* %i5, align 4, !dbg !5964      ; [#uses=1 type=i32] [debug line = 255:14]
  %1800 = load i32* %k, align 4, !dbg !5964       ; [#uses=1 type=i32] [debug line = 255:14]
  %1801 = mul nsw i32 %1800, 24, !dbg !5964       ; [#uses=1 type=i32] [debug line = 255:14]
  %1802 = add nsw i32 %1799, %1801, !dbg !5964    ; [#uses=1 type=i32] [debug line = 255:14]
  %1803 = sext i32 %1802 to i64, !dbg !5964       ; [#uses=1 type=i64] [debug line = 255:14]
  %1804 = getelementptr inbounds [48 x float]* @ShuffleConvs_1_DownsampleUnit_conv1r_bias, i32 0, i64 %1803, !dbg !5964 ; [#uses=1 type=float*] [debug line = 255:14]
  store float %1798, float* %1804, align 4, !dbg !5964 ; [debug line = 255:14]
  %1805 = load i32* %i5, align 4, !dbg !5966      ; [#uses=1 type=i32] [debug line = 256:14]
  %1806 = add nsw i32 %1805, 408, !dbg !5966      ; [#uses=1 type=i32] [debug line = 256:14]
  %1807 = load i32* %k, align 4, !dbg !5966       ; [#uses=1 type=i32] [debug line = 256:14]
  %1808 = mul nsw i32 %1807, 24, !dbg !5966       ; [#uses=1 type=i32] [debug line = 256:14]
  %1809 = add nsw i32 %1806, %1808, !dbg !5966    ; [#uses=1 type=i32] [debug line = 256:14]
  %1810 = sext i32 %1809 to i64, !dbg !5966       ; [#uses=1 type=i64] [debug line = 256:14]
  %1811 = load float** %7, align 8, !dbg !5966    ; [#uses=1 type=float*] [debug line = 256:14]
  %1812 = getelementptr inbounds float* %1811, i64 %1810, !dbg !5966 ; [#uses=1 type=float*] [debug line = 256:14]
  %1813 = load float* %1812, align 4, !dbg !5966  ; [#uses=1 type=float] [debug line = 256:14]
  %1814 = load i32* %i5, align 4, !dbg !5966      ; [#uses=1 type=i32] [debug line = 256:14]
  %1815 = load i32* %k, align 4, !dbg !5966       ; [#uses=1 type=i32] [debug line = 256:14]
  %1816 = mul nsw i32 %1815, 24, !dbg !5966       ; [#uses=1 type=i32] [debug line = 256:14]
  %1817 = add nsw i32 %1814, %1816, !dbg !5966    ; [#uses=1 type=i32] [debug line = 256:14]
  %1818 = sext i32 %1817 to i64, !dbg !5966       ; [#uses=1 type=i64] [debug line = 256:14]
  %1819 = getelementptr inbounds [48 x float]* @ShuffleConvs_1_DownsampleUnit_conv2r_bias, i32 0, i64 %1818, !dbg !5966 ; [#uses=1 type=float*] [debug line = 256:14]
  store float %1813, float* %1819, align 4, !dbg !5966 ; [debug line = 256:14]
  %1820 = load i32* %i5, align 4, !dbg !5967      ; [#uses=1 type=i32] [debug line = 257:14]
  %1821 = add nsw i32 %1820, 456, !dbg !5967      ; [#uses=1 type=i32] [debug line = 257:14]
  %1822 = load i32* %k, align 4, !dbg !5967       ; [#uses=1 type=i32] [debug line = 257:14]
  %1823 = mul nsw i32 %1822, 24, !dbg !5967       ; [#uses=1 type=i32] [debug line = 257:14]
  %1824 = add nsw i32 %1821, %1823, !dbg !5967    ; [#uses=1 type=i32] [debug line = 257:14]
  %1825 = sext i32 %1824 to i64, !dbg !5967       ; [#uses=1 type=i64] [debug line = 257:14]
  %1826 = load float** %7, align 8, !dbg !5967    ; [#uses=1 type=float*] [debug line = 257:14]
  %1827 = getelementptr inbounds float* %1826, i64 %1825, !dbg !5967 ; [#uses=1 type=float*] [debug line = 257:14]
  %1828 = load float* %1827, align 4, !dbg !5967  ; [#uses=1 type=float] [debug line = 257:14]
  %1829 = load i32* %i5, align 4, !dbg !5967      ; [#uses=1 type=i32] [debug line = 257:14]
  %1830 = load i32* %k, align 4, !dbg !5967       ; [#uses=1 type=i32] [debug line = 257:14]
  %1831 = mul nsw i32 %1830, 24, !dbg !5967       ; [#uses=1 type=i32] [debug line = 257:14]
  %1832 = add nsw i32 %1829, %1831, !dbg !5967    ; [#uses=1 type=i32] [debug line = 257:14]
  %1833 = sext i32 %1832 to i64, !dbg !5967       ; [#uses=1 type=i64] [debug line = 257:14]
  %1834 = getelementptr inbounds [48 x float]* @ShuffleConvs_1_DownsampleUnit_conv3r_bias, i32 0, i64 %1833, !dbg !5967 ; [#uses=1 type=float*] [debug line = 257:14]
  store float %1828, float* %1834, align 4, !dbg !5967 ; [debug line = 257:14]
  %1835 = load i32* %i5, align 4, !dbg !5968      ; [#uses=1 type=i32] [debug line = 258:14]
  %1836 = add nsw i32 %1835, 504, !dbg !5968      ; [#uses=1 type=i32] [debug line = 258:14]
  %1837 = load i32* %k, align 4, !dbg !5968       ; [#uses=1 type=i32] [debug line = 258:14]
  %1838 = mul nsw i32 %1837, 24, !dbg !5968       ; [#uses=1 type=i32] [debug line = 258:14]
  %1839 = add nsw i32 %1836, %1838, !dbg !5968    ; [#uses=1 type=i32] [debug line = 258:14]
  %1840 = sext i32 %1839 to i64, !dbg !5968       ; [#uses=1 type=i64] [debug line = 258:14]
  %1841 = load float** %7, align 8, !dbg !5968    ; [#uses=1 type=float*] [debug line = 258:14]
  %1842 = getelementptr inbounds float* %1841, i64 %1840, !dbg !5968 ; [#uses=1 type=float*] [debug line = 258:14]
  %1843 = load float* %1842, align 4, !dbg !5968  ; [#uses=1 type=float] [debug line = 258:14]
  %1844 = load i32* %i5, align 4, !dbg !5968      ; [#uses=1 type=i32] [debug line = 258:14]
  %1845 = load i32* %k, align 4, !dbg !5968       ; [#uses=1 type=i32] [debug line = 258:14]
  %1846 = mul nsw i32 %1845, 24, !dbg !5968       ; [#uses=1 type=i32] [debug line = 258:14]
  %1847 = add nsw i32 %1844, %1846, !dbg !5968    ; [#uses=1 type=i32] [debug line = 258:14]
  %1848 = sext i32 %1847 to i64, !dbg !5968       ; [#uses=1 type=i64] [debug line = 258:14]
  %1849 = getelementptr inbounds [48 x float]* @ShuffleConvs_1_DownsampleUnit_conv1l_bias, i32 0, i64 %1848, !dbg !5968 ; [#uses=1 type=float*] [debug line = 258:14]
  store float %1843, float* %1849, align 4, !dbg !5968 ; [debug line = 258:14]
  %1850 = load i32* %i5, align 4, !dbg !5969      ; [#uses=1 type=i32] [debug line = 259:14]
  %1851 = add nsw i32 %1850, 552, !dbg !5969      ; [#uses=1 type=i32] [debug line = 259:14]
  %1852 = load i32* %k, align 4, !dbg !5969       ; [#uses=1 type=i32] [debug line = 259:14]
  %1853 = mul nsw i32 %1852, 24, !dbg !5969       ; [#uses=1 type=i32] [debug line = 259:14]
  %1854 = add nsw i32 %1851, %1853, !dbg !5969    ; [#uses=1 type=i32] [debug line = 259:14]
  %1855 = sext i32 %1854 to i64, !dbg !5969       ; [#uses=1 type=i64] [debug line = 259:14]
  %1856 = load float** %7, align 8, !dbg !5969    ; [#uses=1 type=float*] [debug line = 259:14]
  %1857 = getelementptr inbounds float* %1856, i64 %1855, !dbg !5969 ; [#uses=1 type=float*] [debug line = 259:14]
  %1858 = load float* %1857, align 4, !dbg !5969  ; [#uses=1 type=float] [debug line = 259:14]
  %1859 = load i32* %i5, align 4, !dbg !5969      ; [#uses=1 type=i32] [debug line = 259:14]
  %1860 = load i32* %k, align 4, !dbg !5969       ; [#uses=1 type=i32] [debug line = 259:14]
  %1861 = mul nsw i32 %1860, 24, !dbg !5969       ; [#uses=1 type=i32] [debug line = 259:14]
  %1862 = add nsw i32 %1859, %1861, !dbg !5969    ; [#uses=1 type=i32] [debug line = 259:14]
  %1863 = sext i32 %1862 to i64, !dbg !5969       ; [#uses=1 type=i64] [debug line = 259:14]
  %1864 = getelementptr inbounds [48 x float]* @ShuffleConvs_1_DownsampleUnit_conv2l_bias, i32 0, i64 %1863, !dbg !5969 ; [#uses=1 type=float*] [debug line = 259:14]
  store float %1858, float* %1864, align 4, !dbg !5969 ; [debug line = 259:14]
  %1865 = load i32* %i5, align 4, !dbg !5970      ; [#uses=1 type=i32] [debug line = 260:14]
  %1866 = add nsw i32 %1865, 600, !dbg !5970      ; [#uses=1 type=i32] [debug line = 260:14]
  %1867 = load i32* %k, align 4, !dbg !5970       ; [#uses=1 type=i32] [debug line = 260:14]
  %1868 = mul nsw i32 %1867, 24, !dbg !5970       ; [#uses=1 type=i32] [debug line = 260:14]
  %1869 = add nsw i32 %1866, %1868, !dbg !5970    ; [#uses=1 type=i32] [debug line = 260:14]
  %1870 = sext i32 %1869 to i64, !dbg !5970       ; [#uses=1 type=i64] [debug line = 260:14]
  %1871 = load float** %7, align 8, !dbg !5970    ; [#uses=1 type=float*] [debug line = 260:14]
  %1872 = getelementptr inbounds float* %1871, i64 %1870, !dbg !5970 ; [#uses=1 type=float*] [debug line = 260:14]
  %1873 = load float* %1872, align 4, !dbg !5970  ; [#uses=1 type=float] [debug line = 260:14]
  %1874 = load i32* %i5, align 4, !dbg !5970      ; [#uses=1 type=i32] [debug line = 260:14]
  %1875 = load i32* %k, align 4, !dbg !5970       ; [#uses=1 type=i32] [debug line = 260:14]
  %1876 = mul nsw i32 %1875, 24, !dbg !5970       ; [#uses=1 type=i32] [debug line = 260:14]
  %1877 = add nsw i32 %1874, %1876, !dbg !5970    ; [#uses=1 type=i32] [debug line = 260:14]
  %1878 = sext i32 %1877 to i64, !dbg !5970       ; [#uses=1 type=i64] [debug line = 260:14]
  %1879 = getelementptr inbounds [48 x float]* @ShuffleConvs_1_ShuffleUnit1_0_conv1_bias, i32 0, i64 %1878, !dbg !5970 ; [#uses=1 type=float*] [debug line = 260:14]
  store float %1873, float* %1879, align 4, !dbg !5970 ; [debug line = 260:14]
  %1880 = load i32* %i5, align 4, !dbg !5971      ; [#uses=1 type=i32] [debug line = 261:14]
  %1881 = add nsw i32 %1880, 648, !dbg !5971      ; [#uses=1 type=i32] [debug line = 261:14]
  %1882 = load i32* %k, align 4, !dbg !5971       ; [#uses=1 type=i32] [debug line = 261:14]
  %1883 = mul nsw i32 %1882, 24, !dbg !5971       ; [#uses=1 type=i32] [debug line = 261:14]
  %1884 = add nsw i32 %1881, %1883, !dbg !5971    ; [#uses=1 type=i32] [debug line = 261:14]
  %1885 = sext i32 %1884 to i64, !dbg !5971       ; [#uses=1 type=i64] [debug line = 261:14]
  %1886 = load float** %7, align 8, !dbg !5971    ; [#uses=1 type=float*] [debug line = 261:14]
  %1887 = getelementptr inbounds float* %1886, i64 %1885, !dbg !5971 ; [#uses=1 type=float*] [debug line = 261:14]
  %1888 = load float* %1887, align 4, !dbg !5971  ; [#uses=1 type=float] [debug line = 261:14]
  %1889 = load i32* %i5, align 4, !dbg !5971      ; [#uses=1 type=i32] [debug line = 261:14]
  %1890 = load i32* %k, align 4, !dbg !5971       ; [#uses=1 type=i32] [debug line = 261:14]
  %1891 = mul nsw i32 %1890, 24, !dbg !5971       ; [#uses=1 type=i32] [debug line = 261:14]
  %1892 = add nsw i32 %1889, %1891, !dbg !5971    ; [#uses=1 type=i32] [debug line = 261:14]
  %1893 = sext i32 %1892 to i64, !dbg !5971       ; [#uses=1 type=i64] [debug line = 261:14]
  %1894 = getelementptr inbounds [48 x float]* @ShuffleConvs_1_ShuffleUnit1_0_conv2_bias, i32 0, i64 %1893, !dbg !5971 ; [#uses=1 type=float*] [debug line = 261:14]
  store float %1888, float* %1894, align 4, !dbg !5971 ; [debug line = 261:14]
  %1895 = load i32* %i5, align 4, !dbg !5972      ; [#uses=1 type=i32] [debug line = 262:14]
  %1896 = add nsw i32 %1895, 696, !dbg !5972      ; [#uses=1 type=i32] [debug line = 262:14]
  %1897 = load i32* %k, align 4, !dbg !5972       ; [#uses=1 type=i32] [debug line = 262:14]
  %1898 = mul nsw i32 %1897, 24, !dbg !5972       ; [#uses=1 type=i32] [debug line = 262:14]
